(dp1
S'parError'
p2
(dp3
S'rhoPhotZ_0b_ge4j_4'
p4
F0.10935884250520911
sS'ewk_0b_ge4j_1'
p5
F10.387986501833751
sS'ewk_0b_ge4j_0'
p6
F13.806055578841153
sS'ewk_0b_ge4j_3'
p7
F4.7029979183826569
sS'ewk_0b_ge4j_2'
p8
F7.9392254243753371
sS'ewk_0b_ge4j_5'
p9
F1.7863002469592075
sS'ewk_0b_ge4j_4'
p10
F2.6839106709024261
sS'rhoPhotZ_0b_ge4j_2'
p11
F0.072744842304944157
sS'fZinv_0b_ge4j_3'
p12
F0.038063246225539304
sS'rhoPhotZ_0b_ge4j_0'
p13
F0.044242085306547496
sS'fZinv_0b_ge4j_5'
p14
F0.067863419079577825
sS'rhoPhotZ_0b_ge4j_6'
p15
F0.1416946989629333
sS'rhoPhotZ_0b_ge4j_5'
p16
F0.10951031764597202
sS'fZinv_0b_ge4j_6'
p17
F0.07477983323672277
sS'rhoPhotZ_0b_ge4j_3'
p18
F0.079960200145247018
sS'fZinv_0b_ge4j_0'
p19
F0.022856941201653103
sS'rhoPhotZ_0b_ge4j_1'
p20
F0.04404115619499116
sS'fZinv_0b_ge4j_2'
p21
F0.037905999588842165
sS'rhoMuonW_0b_ge4j_6'
p22
F0.14707564917612759
sS'rhoMuonW_0b_ge4j_4'
p23
F0.11161863273737194
sS'rhoMuonW_0b_ge4j_5'
p24
F0.1122185470371263
sS'rhoMuonW_0b_ge4j_2'
p25
F0.079785621094335513
sS'rhoMuonW_0b_ge4j_3'
p26
F0.084581372931644527
sS'rhoMuonW_0b_ge4j_0'
p27
F0.045225162190112578
sS'rhoMuonW_0b_ge4j_1'
p28
F0.046367597687619555
sS'ewk_0b_ge4j_6'
p29
F1.5270523571180661
sS'fZinv_0b_ge4j_1'
p30
F0.024182132894548736
sS'fZinv_0b_ge4j_4'
p31
F0.058606198116969432
ssS'lMax'
p32
F-52.797600319666763
sS'funcBestFit'
p33
(dp34
S'ttw_0b_ge4j_5'
p35
F3.4535996620689495
sS'ttw_0b_ge4j_4'
p36
F8.7548279065459464
sS'hadB_0b_ge4j_4'
p37
F22.417572654604125
sS'hadB_0b_ge4j_5'
p38
F10.51078632508851
sS'hadB_0b_ge4j_2'
p39
F133.48480771852309
sS'hadB_0b_ge4j_3'
p40
F57.147359246835194
sS'hadB_0b_ge4j_0'
p41
F408.59583652749978
sS'hadB_0b_ge4j_1'
p42
F258.2210281588911
sS'photExp_0b_ge4j_4'
p43
F27.730297865370535
sS'photExp_0b_ge4j_5'
p44
F13.993640013274682
sS'photExp_0b_ge4j_6'
p45
F8.8517829799126666
sS'photExp_0b_ge4j_0'
p46
F377.71351072103226
sS'photExp_0b_ge4j_1'
p47
F261.57226578185305
sS'photExp_0b_ge4j_2'
p48
F143.95180569018254
sS'photExp_0b_ge4j_3'
p49
F68.941073214351746
sS'ttw_0b_ge4j_3'
p50
F19.064921846214276
sS'muonB_0b_ge4j_1'
p51
F785.295720644938
sS'muonB_0b_ge4j_0'
p52
F1088.5793931713067
sS'muonB_0b_ge4j_3'
p53
F272.9326078785474
sS'muonB_0b_ge4j_2'
p54
F510.54161307593358
sS'muonB_0b_ge4j_5'
p55
F80.492574966263561
sS'muonB_0b_ge4j_4'
p56
F143.84798237139995
sS'muonB_0b_ge4j_6'
p57
F65.296850059595513
sS'hadB_0b_ge4j_6'
p58
F6.8499108583884061
sS'ttw_0b_ge4j_6'
p59
F1.8857221780678224
sS'ttw_0b_ge4j_1'
p60
F107.70298218443621
sS'ttw_0b_ge4j_0'
p61
F193.36444118579786
sS'qcd_0b_ge4j_6'
p62
F0
sS'qcd_0b_ge4j_4'
p63
F0
sS'qcd_0b_ge4j_5'
p64
F0
sS'qcd_0b_ge4j_2'
p65
F0
sS'qcd_0b_ge4j_3'
p66
F0
sS'qcd_0b_ge4j_1'
p67
F0
sS'ttw_0b_ge4j_2'
p68
F54.529149266710263
sS'zInv_0b_ge4j_6'
p69
F4.9641886803205839
sS'zInv_0b_ge4j_4'
p70
F13.662744748058179
sS'zInv_0b_ge4j_5'
p71
F7.0571866630195608
sS'zInv_0b_ge4j_2'
p72
F78.955658451812823
sS'zInv_0b_ge4j_3'
p73
F38.082437400620918
sS'zInv_0b_ge4j_0'
p74
F215.23139534170193
sS'zInv_0b_ge4j_1'
p75
F150.51804597445491
ssS'chi2Prob'
p76
F0.049949879779989464
sS'parBestFit'
p77
(dp78
g4
F1.0034250306048054
sg5
F258.2210281588911
sg6
F408.59583652749978
sg7
F57.147359246835194
sg8
F133.48480771852309
sg9
F10.51078632508851
sg10
F22.417572654604125
sg11
F0.92181524123331604
sg12
F0.66639015175018634
sg13
F0.97487786617830474
sg14
F0.67142328316336819
sg15
F0.98124323974049288
sg16
F0.98728444795409176
sg17
F0.72470850832189071
sg18
F0.98576756865492055
sg19
F0.5267586600266696
sg20
F0.95652750181069623
sg21
F0.591495465298981
sg22
F0.99341694964015959
sg23
F1.001821933738952
sg24
F0.99364239517159092
sg25
F0.94563676413165942
sg26
F0.9934009764547812
sg27
F0.97762799029828007
sg28
F0.96871967632616429
sg29
F6.8499108583884061
sg30
F0.58290390619092669
sg31
F0.60946583997139947
ss.