(dp1
S'parError'
p2
(dp3
S'rhoMuonW_0b_ge2j_4'
p4
F0.10204594484491297
sS'rhoMuonW_0b_ge2j_5'
p5
F0.1034763078910601
sS'rhoMuonW_0b_ge2j_6'
p6
F0.10339420817969908
sS'rhoMuonW_0b_ge2j_0'
p7
F0.043571911629619375
sS'rhoMuonW_0b_ge2j_1'
p8
F0.045625380648615377
sS'rhoMuonW_0b_ge2j_2'
p9
F0.07996239139815281
sS'rhoMuonW_0b_ge2j_3'
p10
F0.099608165263530446
sS'fZinv_0b_ge2j_6'
p11
F0.050629716262371283
sS'fZinv_0b_ge2j_5'
p12
F0.042954373936341161
sS'fZinv_0b_ge2j_4'
p13
F0.041270606573609925
sS'fZinv_0b_ge2j_3'
p14
F0.033707102283883406
sS'fZinv_0b_ge2j_2'
p15
F0.028714324275276482
sS'fZinv_0b_ge2j_1'
p16
F0.016809927061075425
sS'fZinv_0b_ge2j_0'
p17
F0.016351706463926308
sS'ewk_0b_ge2j_3'
p18
F8.7196836384028558
sS'ewk_0b_ge2j_2'
p19
F15.906957792860055
sS'ewk_0b_ge2j_1'
p20
F25.259814364167596
sS'ewk_0b_ge2j_0'
p21
F49.845781494497487
sS'ewk_0b_ge2j_6'
p22
F2.2001614064164308
sS'ewk_0b_ge2j_5'
p23
F2.8437324940874191
sS'ewk_0b_ge2j_4'
p24
F4.4387652376279298
sS'rhoPhotZ_0b_ge2j_1'
p25
F0.037808555966346469
sS'rhoPhotZ_0b_ge2j_0'
p26
F0.033230554274107205
sS'rhoPhotZ_0b_ge2j_3'
p27
F0.08128060016563815
sS'rhoPhotZ_0b_ge2j_2'
p28
F0.062817543387678199
sS'rhoPhotZ_0b_ge2j_5'
p29
F0.098879328941099132
sS'rhoPhotZ_0b_ge2j_4'
p30
F0.095984537304755813
sS'rhoPhotZ_0b_ge2j_6'
p31
F0.099674268543145261
ssS'lMax'
p32
F-59.59713813310654
sS'funcBestFit'
p33
(dp34
S'photExp_0b_ge2j_4'
p35
F67.428263935036853
sS'photExp_0b_ge2j_5'
p36
F31.794533392885256
sS'photExp_0b_ge2j_6'
p37
F24.440656708466886
sS'photExp_0b_ge2j_2'
p38
F505.5015508678465
sS'qcd_0b_ge2j_1'
p39
F0
sS'qcd_0b_ge2j_2'
p40
F0
sS'qcd_0b_ge2j_3'
p41
F0
sS'qcd_0b_ge2j_4'
p42
F0
sS'qcd_0b_ge2j_5'
p43
F0
sS'qcd_0b_ge2j_6'
p44
F0
sS'ttw_0b_ge2j_0'
p45
F1166.8347509820064
sS'muonB_0b_ge2j_3'
p46
F885.23556164968898
sS'muonB_0b_ge2j_2'
p47
F1984.4524620372345
sS'muonB_0b_ge2j_1'
p48
F4171.6037237245655
sS'muonB_0b_ge2j_0'
p49
F9661.9650047979248
sS'muonB_0b_ge2j_6'
p50
F211.59482566724745
sS'muonB_0b_ge2j_5'
p51
F221.29180129957567
sS'muonB_0b_ge2j_4'
p52
F474.2235430119967
sS'photExp_0b_ge2j_3'
p53
F192.26307776232611
sS'ttw_0b_ge2j_6'
p54
F4.8487870390698165
sS'hadB_0b_ge2j_6'
p55
F16.015510853595067
sS'zInv_0b_ge2j_4'
p56
F33.298248243353846
sS'zInv_0b_ge2j_5'
p57
F16.720300997761157
sS'zInv_0b_ge2j_6'
p58
F11.166723814525252
sS'zInv_0b_ge2j_0'
p59
F1906.0927579858235
sS'zInv_0b_ge2j_1'
p60
F657.52183840516011
sS'zInv_0b_ge2j_2'
p61
F252.80169356991141
sS'zInv_0b_ge2j_3'
p62
F95.812148785797362
sS'hadB_0b_ge2j_0'
p63
F3072.9275089678299
sS'photExp_0b_ge2j_0'
p64
F3840.2869137817474
sS'hadB_0b_ge2j_1'
p65
F1019.9991831915897
sS'photExp_0b_ge2j_1'
p66
F1323.4658031023914
sS'ttw_0b_ge2j_1'
p67
F362.47734478642957
sS'hadB_0b_ge2j_4'
p68
F50.36982825077029
sS'hadB_0b_ge2j_5'
p69
F22.909232993567613
sS'ttw_0b_ge2j_5'
p70
F6.188931995806457
sS'ttw_0b_ge2j_4'
p71
F17.071580007416447
sS'ttw_0b_ge2j_3'
p72
F41.611057222419326
sS'ttw_0b_ge2j_2'
p73
F131.23585879764963
sS'hadB_0b_ge2j_2'
p74
F384.03755236756103
sS'hadB_0b_ge2j_3'
p75
F137.42320600821668
ssS'chi2Prob'
p76
F0.92608421068540725
sS'parBestFit'
p77
(dp78
g4
F0.99711159385725034
sg5
F0.99686322804086336
sg6
F0.99410062091435869
sg7
F1.0015864354043269
sg8
F0.98892130974968218
sg9
F0.97392589717901257
sg10
F0.97461036753811658
sg11
F0.69724431000704612
sg12
F0.72984988203035139
sg13
F0.66107527858891646
sg14
F0.69720501776147359
sg15
F0.65827336939163639
sg16
F0.64462976955311513
sg17
F0.62028562418840261
sg18
F137.42320600821668
sg19
F384.03755236756103
sg20
F1019.9991831915897
sg21
F3072.9275089678299
sg22
F16.015510853595067
sg23
F22.909232993567613
sg24
F50.36982825077029
sg25
F0.9799201185301768
sg26
F1.0041385987330542
sg27
F0.94417184046597402
sg28
F0.9530820461159375
sg29
F0.9913307879078912
sg30
F0.99548299552792985
sg31
F0.98425331945066352
ss.