(dp1
S'parError'
p2
(dp3
S'rhoMuonW_2b_ge4j_4'
p4
F0.11321254049704915
sS'rhoMuonW_2b_ge4j_5'
p5
F0.11321194705071203
sS'rhoMuonW_2b_ge4j_6'
p6
F0.14815723277227849
sS'rhoMuonW_2b_ge4j_0'
p7
F0.048781938073580333
sS'rhoMuonW_2b_ge4j_1'
p8
F0.048781222669467272
sS'rhoMuonW_2b_ge4j_2'
p9
F0.086132351441182531
sS'rhoMuonW_2b_ge4j_3'
p10
F0.086129382066102322
sS'ewk_2b_ge4j_3'
p11
F0.80419518155173231
sS'ewk_2b_ge4j_2'
p12
F2.0379477578441403
sS'ewk_2b_ge4j_1'
p13
F2.6970045421005082
sS'ewk_2b_ge4j_0'
p14
F4.4058847886188417
sS'ewk_2b_ge4j_6'
p15
F0.15249597013195504
sS'ewk_2b_ge4j_5'
p16
F0.31129589470139885
sS'ewk_2b_ge4j_4'
p17
F0.26828658106817116
ssS'lMax'
p18
F-12.028228152884255
sS'funcBestFit'
p19
(dp20
S'qcd_2b_ge4j_4'
p21
F0
sS'qcd_2b_ge4j_5'
p22
F0
sS'qcd_2b_ge4j_6'
p23
F0
sS'qcd_2b_ge4j_1'
p24
F0
sS'qcd_2b_ge4j_2'
p25
F0
sS'qcd_2b_ge4j_3'
p26
F0
sS'hadB_2b_ge4j_4'
p27
F1.4530093087298701
sS'hadB_2b_ge4j_5'
p28
F1.2910862103819642
sS'hadB_2b_ge4j_6'
p29
F0.52488936765453742
sS'hadB_2b_ge4j_0'
p30
F70.999076978331061
sS'hadB_2b_ge4j_1'
p31
F40.447265522879889
sS'hadB_2b_ge4j_2'
p32
F19.107127441361136
sS'hadB_2b_ge4j_3'
p33
F6.3638907733262648
sS'muonB_2b_ge4j_3'
p34
F117.00000000546207
sS'muonB_2b_ge4j_2'
p35
F253.00000002584665
sS'muonB_2b_ge4j_1'
p36
F484.00000005116425
sS'muonB_2b_ge4j_0'
p37
F679.99999987869796
sS'muonB_2b_ge4j_6'
p38
F16.000000023209616
sS'muonB_2b_ge4j_5'
p39
F22.000000028698782
sS'muonB_2b_ge4j_4'
p40
F47.000000002048843
ssS'chi2Prob'
p41
F0
sS'parBestFit'
p42
(dp43
g4
F1.0000000018133544
sg5
F1.000000001226556
sg6
F1.0000000012349139
sg7
F1.0000000004437202
sg8
F1.0000000000485674
sg9
F1.0000000026353622
sg10
F1.0000000020104838
sg11
F6.3638907733262648
sg12
F19.107127441361136
sg13
F40.447265522879889
sg14
F70.999076978331061
sg15
F0.52488936765453742
sg16
F1.2910862103819642
sg17
F1.4530093087298701
ss.