(dp1
S'parError'
p2
(dp3
S'rhoMuonW_1b_ge4j_3'
p4
F0.08631836526585146
sS'rhoPhotZ_1b_ge4j_1'
p5
F0.048326714169939666
sS'rhoMuonW_1b_ge4j_2'
p6
F0.080847853891698407
sS'ewk_1b_ge4j_4'
p7
F1.6005099828366305
sS'ewk_1b_ge4j_5'
p8
F1.0835009177569095
sS'ewk_1b_ge4j_6'
p9
F0.85352348441921322
sS'ewk_1b_ge4j_0'
p10
F7.2726516671266523
sS'ewk_1b_ge4j_1'
p11
F5.4340199678819658
sS'ewk_1b_ge4j_2'
p12
F3.4249652292100947
sS'ewk_1b_ge4j_3'
p13
F1.6416100286953021
sS'rhoPhotZ_1b_ge4j_2'
p14
F0.084055061087473626
sS'rhoMuonW_1b_ge4j_5'
p15
F0.11220826743606294
sS'rhoPhotZ_1b_ge4j_3'
p16
F0.086613139403715567
sS'rhoPhotZ_1b_ge4j_0'
p17
F0.047993463699596839
sS'rhoMuonW_1b_ge4j_0'
p18
F0.042705214973282002
sS'rhoPhotZ_1b_ge4j_6'
p19
F0.15041783030244088
sS'rhoMuonW_1b_ge4j_6'
p20
F0.14900522250245113
sS'fZinv_1b_ge4j_0'
p21
F0.02404525497524157
sS'fZinv_1b_ge4j_1'
p22
F0.030157789849995259
sS'fZinv_1b_ge4j_2'
p23
F0.052968378417665052
sS'fZinv_1b_ge4j_3'
p24
F0.065220551760075435
sS'fZinv_1b_ge4j_4'
p25
F0.090867940750400306
sS'fZinv_1b_ge4j_5'
p26
F0.1239714536244175
sS'fZinv_1b_ge4j_6'
p27
F0.11285754490697608
sS'rhoPhotZ_1b_ge4j_5'
p28
F0.1110696300788187
sS'rhoMuonW_1b_ge4j_4'
p29
F0.10955298043178385
sS'rhoPhotZ_1b_ge4j_4'
p30
F0.10940118077787608
sS'rhoMuonW_1b_ge4j_1'
p31
F0.045961777050631092
ssS'lMax'
p32
F-44.45987219116175
sS'funcBestFit'
p33
(dp34
S'ttw_1b_ge4j_0'
p35
F130.44181734990804
sS'ttw_1b_ge4j_1'
p36
F79.290174898928854
sS'hadB_1b_ge4j_1'
p37
F109.00179491224029
sS'hadB_1b_ge4j_0'
p38
F168.97437093152297
sS'ttw_1b_ge4j_4'
p39
F5.3461707921977819
sS'ttw_1b_ge4j_5'
p40
F1.697177414022627
sS'hadB_1b_ge4j_5'
p41
F4.0458705999531661
sS'hadB_1b_ge4j_2'
p42
F41.009726548970349
sS'ttw_1b_ge4j_2'
p43
F26.035041604588294
sS'hadB_1b_ge4j_3'
p44
F14.7341469593021
sS'ttw_1b_ge4j_3'
p45
F9.8244642022610691
sS'hadB_1b_ge4j_6'
p46
F2.9248803472278047
sS'ttw_1b_ge4j_6'
p47
F1.0398856044503484
sS'photExp_1b_ge4j_1'
p48
F58.375875065883029
sS'photExp_1b_ge4j_0'
p49
F87.401226894216521
sS'photExp_1b_ge4j_3'
p50
F12.090468200184722
sS'hadB_1b_ge4j_4'
p51
F10.319833656072097
sS'photExp_1b_ge4j_5'
p52
F4.1432636518791002
sS'photExp_1b_ge4j_4'
p53
F11.251696339175608
sS'photExp_1b_ge4j_6'
p54
F3.7474183118109083
sS'muonB_1b_ge4j_4'
p55
F86.45335060529338
sS'muonB_1b_ge4j_5'
p56
F47.799842581931308
sS'muonB_1b_ge4j_6'
p57
F36.317026767222011
sS'muonB_1b_ge4j_0'
p58
F1070.7725533998387
sS'muonB_1b_ge4j_1'
p59
F763.58894114027532
sS'muonB_1b_ge4j_2'
p60
F327.1750954550439
sS'muonB_1b_ge4j_3'
p61
F184.17818993499347
sS'qcd_1b_ge4j_3'
p62
F0
sS'qcd_1b_ge4j_2'
p63
F0
sS'qcd_1b_ge4j_1'
p64
F0
sS'qcd_1b_ge4j_6'
p65
F0
sS'qcd_1b_ge4j_5'
p66
F0
sS'qcd_1b_ge4j_4'
p67
F0
sS'zInv_1b_ge4j_3'
p68
F4.9096827570410317
sS'zInv_1b_ge4j_2'
p69
F14.974684944382055
sS'zInv_1b_ge4j_1'
p70
F29.711620013311425
sS'zInv_1b_ge4j_0'
p71
F38.532553581614941
sS'zInv_1b_ge4j_6'
p72
F1.8849947427774563
sS'zInv_1b_ge4j_5'
p73
F2.3486931859305389
sS'zInv_1b_ge4j_4'
p74
F4.9736628638743152
sS'photExp_1b_ge4j_2'
p75
F29.811594283244666
ssS'chi2Prob'
p76
F0.021626063635653905
sS'parBestFit'
p77
(dp78
g4
F1.0288160400867692
sg5
F0.99667186097866645
sg6
F0.97643165817665689
sg7
F10.319833656072097
sg8
F4.0458705999531661
sg9
F2.9248803472278047
sg10
F168.97437093152297
sg11
F109.00179491224029
sg12
F41.009726548970349
sg13
F14.7341469593021
sg14
F0.98661912513361294
sg15
F0.98985215946477312
sg16
F1.0142807461184287
sg17
F0.98481086807118623
sg18
F0.94966342244885571
sg19
F1.0280875809968317
sg20
F1.0146479038259155
sg21
F0.22803785786680214
sg22
F0.27257918126240854
sg23
F0.36514959265823321
sg24
F0.33321798476710623
sg25
F0.48195184434468641
sg26
F0.58051614057002388
sg27
F0.64446901035252613
sg28
F0.98540186531709317
sg29
F0.96946057383715023
sg30
F0.97143914116777352
sg31
F0.99148656990338258
ss.