(dp1
S'parError'
p2
(dp3
S'ewk_1b_ge2j_2'
p4
F4.9668748729159944
sS'ewk_1b_ge2j_3'
p5
F2.3334929473507593
sS'ewk_1b_ge2j_0'
p6
F17.659382294443731
sS'ewk_1b_ge2j_1'
p7
F8.5297598428011412
sS'ewk_1b_ge2j_6'
p8
F0.66612905546007406
sS'ewk_1b_ge2j_4'
p9
F1.9382575161067601
sS'ewk_1b_ge2j_5'
p10
F1.1760800266525315
sS'fZinv_1b_ge2j_6'
p11
F0.11702131490894074
sS'fZinv_1b_ge2j_4'
p12
F0.07818515543007909
sS'fZinv_1b_ge2j_5'
p13
F0.079723286279557382
sS'rhoPhotZ_1b_ge2j_4'
p14
F0.10076443659764456
sS'rhoPhotZ_1b_ge2j_5'
p15
F0.10226878972544373
sS'fZinv_1b_ge2j_0'
p16
F0.02046500147993352
sS'rhoMuonW_1b_ge2j_5'
p17
F0.10367510134021113
sS'rhoMuonW_1b_ge2j_4'
p18
F0.10098701253286313
sS'rhoMuonW_1b_ge2j_6'
p19
F0.10458285474955065
sS'rhoMuonW_1b_ge2j_1'
p20
F0.045749819155440241
sS'rhoMuonW_1b_ge2j_0'
p21
F0.041010661442186735
sS'rhoMuonW_1b_ge2j_3'
p22
F0.10381183990675408
sS'rhoMuonW_1b_ge2j_2'
p23
F0.080464685476664133
sS'rhoPhotZ_1b_ge2j_0'
p24
F0.045221492877922653
sS'rhoPhotZ_1b_ge2j_1'
p25
F0.04737762582009214
sS'rhoPhotZ_1b_ge2j_2'
p26
F0.08218173315658206
sS'rhoPhotZ_1b_ge2j_3'
p27
F0.10473134042125731
sS'fZinv_1b_ge2j_2'
p28
F0.043637226979343524
sS'fZinv_1b_ge2j_3'
p29
F0.057316863009937324
sS'rhoPhotZ_1b_ge2j_6'
p30
F0.10477697225290805
sS'fZinv_1b_ge2j_1'
p31
F0.024504648607949431
ssS'lMax'
p32
F-46.439105753982922
sS'funcBestFit'
p33
(dp34
S'ttw_1b_ge2j_6'
p35
F1.2596982788957731
sS'hadB_1b_ge2j_6'
p36
F2.705352725652773
sS'ttw_1b_ge2j_2'
p37
F39.695517106665427
sS'ttw_1b_ge2j_3'
p38
F13.329270339402685
sS'hadB_1b_ge2j_3'
p39
F23.146517321170016
sS'hadB_1b_ge2j_2'
p40
F71.858148036504986
sS'qcd_1b_ge2j_1'
p41
F0
sS'photExp_1b_ge2j_2'
p42
F66.842749390585709
sS'qcd_1b_ge2j_3'
p43
F0
sS'qcd_1b_ge2j_2'
p44
F0
sS'qcd_1b_ge2j_5'
p45
F0
sS'qcd_1b_ge2j_4'
p46
F0
sS'photExp_1b_ge2j_5'
p47
F8.9404653158789049
sS'qcd_1b_ge2j_6'
p48
F0
sS'hadB_1b_ge2j_5'
p49
F5.602957246715401
sS'hadB_1b_ge2j_4'
p50
F14.243113240057106
sS'ttw_1b_ge2j_4'
p51
F7.2703298275547041
sS'ttw_1b_ge2j_5'
p52
F1.8837569642993233
sS'hadB_1b_ge2j_1'
p53
F217.33805252324112
sS'hadB_1b_ge2j_0'
p54
F616.64056092227224
sS'ttw_1b_ge2j_0'
p55
F370.10306113089729
sS'ttw_1b_ge2j_1'
p56
F128.8309964708134
sS'zInv_1b_ge2j_5'
p57
F3.7192002824160779
sS'zInv_1b_ge2j_4'
p58
F6.9727834125024017
sS'zInv_1b_ge2j_6'
p59
F1.4456544467569998
sS'zInv_1b_ge2j_1'
p60
F88.507056052427714
sS'zInv_1b_ge2j_0'
p61
F246.53749979137496
sS'zInv_1b_ge2j_3'
p62
F9.8172469817673313
sS'zInv_1b_ge2j_2'
p63
F32.162630929839558
sS'photExp_1b_ge2j_3'
p64
F26.394288489247888
sS'photExp_1b_ge2j_1'
p65
F195.86964408386922
sS'photExp_1b_ge2j_0'
p66
F515.94566206085437
sS'photExp_1b_ge2j_6'
p67
F4.0940027442774678
sS'muonB_1b_ge2j_2'
p68
F611.2923134626659
sS'muonB_1b_ge2j_3'
p69
F295.47179068568249
sS'muonB_1b_ge2j_0'
p70
F3240.3134240594795
sS'muonB_1b_ge2j_1'
p71
F1476.7653900228581
sS'muonB_1b_ge2j_6'
p72
F59.2099495743999
sS'muonB_1b_ge2j_4'
p73
F150.44402975122313
sS'muonB_1b_ge2j_5'
p74
F76.470970788728721
sS'photExp_1b_ge2j_4'
p75
F14.333889511472895
ssS'chi2Prob'
p76
F0.33608215177598788
sS'parBestFit'
p77
(dp78
g4
F71.858148036504986
sg5
F23.146517321170016
sg6
F616.64056092227224
sg7
F217.33805252324112
sg8
F2.705352725652773
sg9
F14.243113240057106
sg10
F5.602957246715401
sg11
F0.53436819274949765
sg12
F0.48955472690424562
sg13
F0.66379237225063059
sg14
F0.97490359428561368
sg15
F0.98982786397637978
sg16
F0.39980746550736723
sg17
F0.99479796493067485
sg18
F0.97361362790629846
sg19
F1.0084439367960747
sg20
F1.0004490240765074
sg21
F0.96904280435496815
sg22
F1.0394062342287915
sg23
F0.9831149335817404
sg24
F0.9788606864968149
sg25
F1.0002890410666609
sg26
F0.98629937429040215
sg27
F1.0288277696003691
sg28
F0.4475850242271826
sg29
F0.42413495065144802
sg30
F1.0099375918351106
sg31
F0.40723221278962729
ss.