(dp1
S'parError'
p2
(dp3
S'rhoMuonW_2b_ge4j_4'
p4
F0.11143407367308827
sS'rhoMuonW_2b_ge4j_5'
p5
F0.1127345814177107
sS'rhoMuonW_2b_ge4j_6'
p6
F0.14898720924347608
sS'rhoMuonW_2b_ge4j_0'
p7
F0.043506639906222
sS'rhoMuonW_2b_ge4j_1'
p8
F0.045682011973161241
sS'rhoMuonW_2b_ge4j_2'
p9
F0.081543294315141956
sS'rhoMuonW_2b_ge4j_3'
p10
F0.082695597513430141
sS'ewk_2b_ge4j_3'
p11
F0.79054937446298101
sS'ewk_2b_ge4j_2'
p12
F1.8308758614381837
sS'ewk_2b_ge4j_1'
p13
F2.5665972805422044
sS'ewk_2b_ge4j_0'
p14
F4.1141710112431369
sS'ewk_2b_ge4j_6'
p15
F0.14490779606488063
sS'ewk_2b_ge4j_5'
p16
F0.29713092077059605
sS'ewk_2b_ge4j_4'
p17
F0.26548872521778566
ssS'lMax'
p18
F-29.129502872372004
sS'funcBestFit'
p19
(dp20
S'qcd_2b_ge4j_4'
p21
F0
sS'qcd_2b_ge4j_5'
p22
F0
sS'qcd_2b_ge4j_6'
p23
F0
sS'qcd_2b_ge4j_1'
p24
F0
sS'qcd_2b_ge4j_2'
p25
F0
sS'qcd_2b_ge4j_3'
p26
F0
sS'hadB_2b_ge4j_4'
p27
F1.4785771267134962
sS'hadB_2b_ge4j_5'
p28
F1.2713479631939943
sS'hadB_2b_ge4j_6'
p29
F0.50351551071778466
sS'hadB_2b_ge4j_0'
p30
F75.605802348054524
sS'hadB_2b_ge4j_1'
p31
F42.088664041965956
sS'hadB_2b_ge4j_2'
p32
F18.913233271897472
sS'hadB_2b_ge4j_3'
p33
F6.6105108021438213
sS'muonB_2b_ge4j_3'
p34
F119.38132564554365
sS'muonB_2b_ge4j_2'
p35
F252.10137633973042
sS'muonB_2b_ge4j_1'
p36
F492.94465558233708
sS'muonB_2b_ge4j_0'
p37
F696.33356802053606
sS'muonB_2b_ge4j_6'
p38
F15.515534662277252
sS'muonB_2b_ge4j_5'
p39
F21.73755638625487
sS'muonB_2b_ge4j_4'
p40
F47.510298197381573
ssS'chi2Prob'
p41
F0.28542585968745621
sS'parBestFit'
p42
(dp43
g4
F0.99337748457376773
sg5
F1.0034109861058336
sg6
F1.0108848439865661
sg7
F0.96162555327292809
sg8
F0.97876138312453642
sg9
F1.0066634901383293
sg10
F0.98228663258635707
sg11
F6.6105108021438213
sg12
F18.913233271897472
sg13
F42.088664041965956
sg14
F75.605802348054524
sg15
F0.50351551071778466
sg16
F1.2713479631939943
sg17
F1.4785771267134962
ss.