(dp1
S'parError'
p2
(dp3
S'rhoPhotZ_0b_ge4j_4'
p4
F0.11320581031003957
sS'ewk_0b_ge4j_1'
p5
F12.446156830536097
sS'ewk_0b_ge4j_0'
p6
F18.116645736683182
sS'ewk_0b_ge4j_3'
p7
F5.8051055768589634
sS'ewk_0b_ge4j_2'
p8
F9.5847007885630191
sS'ewk_0b_ge4j_5'
p9
F2.0127067796039544
sS'ewk_0b_ge4j_4'
p10
F3.2896139103938218
sS'rhoPhotZ_0b_ge4j_2'
p11
F0.086129332490882116
sS'fZinv_0b_ge4j_3'
p12
F0.041054325910325484
sS'rhoPhotZ_0b_ge4j_0'
p13
F0.048781751548713614
sS'fZinv_0b_ge4j_5'
p14
F0.076370275813102129
sS'rhoPhotZ_0b_ge4j_6'
p15
F0.1481209050820459
sS'rhoPhotZ_0b_ge4j_5'
p16
F0.11320392512684407
sS'fZinv_0b_ge4j_6'
p17
F0.089113389406946963
sS'rhoPhotZ_0b_ge4j_3'
p18
F0.08612009403277443
sS'fZinv_0b_ge4j_0'
p19
F0.022880542647155333
sS'rhoPhotZ_0b_ge4j_1'
p20
F0.048776860300037361
sS'fZinv_0b_ge4j_2'
p21
F0.03822804838439936
sS'rhoMuonW_0b_ge4j_6'
p22
F0.14820359894768542
sS'rhoMuonW_0b_ge4j_4'
p23
F0.11322889713818396
sS'rhoMuonW_0b_ge4j_5'
p24
F0.11316329749870568
sS'rhoMuonW_0b_ge4j_2'
p25
F0.08610232508037563
sS'rhoMuonW_0b_ge4j_3'
p26
F0.086115760245821238
sS'rhoMuonW_0b_ge4j_0'
p27
F0.048782725437500729
sS'rhoMuonW_0b_ge4j_1'
p28
F0.048778210592992921
sS'ewk_0b_ge4j_6'
p29
F1.7244511667421492
sS'fZinv_0b_ge4j_1'
p30
F0.024764456294067538
sS'fZinv_0b_ge4j_4'
p31
F0.061910094446122554
ssS'lMax'
p32
F-25.072272649089413
sS'funcBestFit'
p33
(dp34
S'ttw_0b_ge4j_5'
p35
F3.4119467632306
sS'ttw_0b_ge4j_4'
p36
F8.778396270650866
sS'hadB_0b_ge4j_4'
p37
F22.621972276782568
sS'hadB_0b_ge4j_5'
p38
F9.8835670279112282
sS'hadB_0b_ge4j_2'
p39
F118.05340427726082
sS'hadB_0b_ge4j_3'
p40
F55.36005058155088
sS'hadB_0b_ge4j_0'
p41
F391.20708744495533
sS'hadB_0b_ge4j_1'
p42
F236.34594061351459
sS'photExp_0b_ge4j_4'
p43
F28.001097654995583
sS'photExp_0b_ge4j_5'
p44
F12.997444559055811
sS'photExp_0b_ge4j_6'
p45
F8.0032271255941403
sS'photExp_0b_ge4j_0'
p46
F366.96621423487409
sS'photExp_0b_ge4j_1'
p47
F243.0148719725299
sS'photExp_0b_ge4j_2'
p48
F132.98734074358211
sS'photExp_0b_ge4j_3'
p49
F66.994957529673258
sS'ttw_0b_ge4j_3'
p50
F18.87759469257411
sS'muonB_0b_ge4j_1'
p51
F772.01214607906138
sS'muonB_0b_ge4j_0'
p52
F1078.9877385074624
sS'muonB_0b_ge4j_3'
p53
F272.0143352312881
sS'muonB_0b_ge4j_2'
p54
F503.01972597804274
sS'muonB_0b_ge4j_5'
p55
F80.005440550136512
sS'muonB_0b_ge4j_4'
p56
F143.99511885661499
sS'muonB_0b_ge4j_6'
p57
F64.990900803676809
sS'hadB_0b_ge4j_6'
p58
F6.2685423777052218
sS'ttw_0b_ge4j_6'
p59
F1.8638792041185521
sS'ttw_0b_ge4j_1'
p60
F102.57535182570447
sS'ttw_0b_ge4j_0'
p61
F187.36356379150769
sS'qcd_0b_ge4j_6'
p62
F0
sS'qcd_0b_ge4j_4'
p63
F0
sS'qcd_0b_ge4j_5'
p64
F0
sS'qcd_0b_ge4j_2'
p65
F0
sS'qcd_0b_ge4j_3'
p66
F0
sS'qcd_0b_ge4j_1'
p67
F0
sS'ttw_0b_ge4j_2'
p68
F50.817836970256018
sS'zInv_0b_ge4j_6'
p69
F4.4046631735866697
sS'zInv_0b_ge4j_4'
p70
F13.843576006131702
sS'zInv_0b_ge4j_5'
p71
F6.4716202646806282
sS'zInv_0b_ge4j_2'
p72
F67.2355673070048
sS'zInv_0b_ge4j_3'
p73
F36.482455888976766
sS'zInv_0b_ge4j_0'
p74
F203.84352365344765
sS'zInv_0b_ge4j_1'
p75
F133.77058878781011
ssS'chi2Prob'
p76
F0
sS'parBestFit'
p77
(dp78
g4
F0.99998875721887404
sg5
F236.34594061351459
sg6
F391.20708744495533
sg7
F55.36005058155088
sg8
F118.05340427726082
sg9
F9.8835670279112282
sg10
F22.621972276782568
sg11
F1.0000489435892217
sg12
F0.65900329760780241
sg13
F1.0000517526228541
sg14
F0.65478589323113301
sg15
F0.99987713831207403
sg16
F0.9999727158745928
sg17
F0.70266146548715236
sg18
F0.99995227564087963
sg19
F0.52106296178013234
sg20
F0.99992298670471613
sg21
F0.56953518383167512
sg22
F1.0003496786076493
sg23
F1.0001542012036577
sg24
F0.99968588509841716
sg25
F0.99974850825644057
sg26
F0.99988331540600806
sg27
F1.0000495110307865
sg28
F0.99993952854557222
sg29
F6.2685423777052218
sg30
F0.56599486515640596
sg31
F0.61195265544285327
ss.