(dp1
S'parError'
p2
(dp3
S'rhoMuonW_0b_le3j_2'
p4
F0.065826672660032615
sS'rhoMuonW_0b_le3j_3'
p5
F0.10145389741398314
sS'rhoMuonW_0b_le3j_0'
p6
F0.027833677110467303
sS'rhoMuonW_0b_le3j_1'
p7
F0.037991319207285823
sS'rhoMuonW_0b_le3j_6'
p8
F0.10362384356575116
sS'rhoMuonW_0b_le3j_4'
p9
F0.10315452249945928
sS'rhoMuonW_0b_le3j_5'
p10
F0.1040383826688781
sS'fZinv_0b_le3j_1'
p11
F0.013845936130961189
sS'fZinv_0b_le3j_0'
p12
F0.010338597830830742
sS'fZinv_0b_le3j_3'
p13
F0.033932497041836929
sS'fZinv_0b_le3j_2'
p14
F0.022684431978921116
sS'fZinv_0b_le3j_5'
p15
F0.047466543321051491
sS'fZinv_0b_le3j_4'
p16
F0.042906806811720988
sS'fZinv_0b_le3j_6'
p17
F0.061715771210239745
sS'ewk_0b_le3j_5'
p18
F2.026758141843251
sS'ewk_0b_le3j_4'
p19
F3.1165860279690936
sS'ewk_0b_le3j_6'
p20
F1.5261623098799828
sS'ewk_0b_le3j_1'
p21
F19.243176364815554
sS'ewk_0b_le3j_0'
p22
F40.450979479251828
sS'ewk_0b_le3j_3'
p23
F6.0765437465046688
sS'ewk_0b_le3j_2'
p24
F10.965923783326687
sS'rhoPhotZ_0b_le3j_3'
p25
F0.087443025662072349
sS'rhoPhotZ_0b_le3j_2'
p26
F0.058249984176849567
sS'rhoPhotZ_0b_le3j_1'
p27
F0.033975190168109015
sS'rhoPhotZ_0b_le3j_0'
p28
F0.0238574466137908
sS'rhoPhotZ_0b_le3j_6'
p29
F0.10197831303964611
sS'rhoPhotZ_0b_le3j_5'
p30
F0.1018789310054482
sS'rhoPhotZ_0b_le3j_4'
p31
F0.098369305919955075
ssS'lMax'
p32
F-53.062753066220687
sS'funcBestFit'
p33
(dp34
S'photExp_0b_le3j_0'
p35
F3462.1823570135284
sS'photExp_0b_le3j_1'
p36
F1067.3278592465338
sS'photExp_0b_le3j_2'
p37
F364.40108020771675
sS'photExp_0b_le3j_3'
p38
F123.90000414927742
sS'photExp_0b_le3j_4'
p39
F39.701544654263223
sS'photExp_0b_le3j_5'
p40
F17.657221102736017
sS'photExp_0b_le3j_6'
p41
F15.509457713061348
sS'zInv_0b_le3j_2'
p42
F167.72732991207718
sS'zInv_0b_le3j_3'
p43
F57.075038688973969
sS'zInv_0b_le3j_0'
p44
F1689.346750383063
sS'zInv_0b_le3j_1'
p45
F499.52632282644629
sS'zInv_0b_le3j_6'
p46
F6.2385918212806963
sS'zInv_0b_le3j_4'
p47
F19.60674098107064
sS'zInv_0b_le3j_5'
p48
F9.4285353414804369
sS'muonB_0b_le3j_5'
p49
F140.88907378669285
sS'hadB_0b_le3j_2'
p50
F244.53013592645797
sS'muonB_0b_le3j_6'
p51
F146.2540848624252
sS'muonB_0b_le3j_1'
p52
F3392.6925250591685
sS'muonB_0b_le3j_0'
p53
F8576.7379191373311
sS'muonB_0b_le3j_3'
p54
F612.47209573213286
sS'ttw_0b_le3j_0'
p55
F971.70270593612952
sS'hadB_0b_le3j_0'
p56
F2661.0494563191924
sS'qcd_0b_le3j_2'
p57
F0
sS'qcd_0b_le3j_3'
p58
F0
sS'qcd_0b_le3j_1'
p59
F0
sS'qcd_0b_le3j_6'
p60
F0
sS'qcd_0b_le3j_4'
p61
F0
sS'qcd_0b_le3j_5'
p62
F0
sS'hadB_0b_le3j_6'
p63
F9.2213046419188593
sS'muonB_0b_le3j_4'
p64
F330.30676142981986
sS'ttw_0b_le3j_6'
p65
F2.982712820638163
sS'muonB_0b_le3j_2'
p66
F1477.1591808480875
sS'ttw_0b_le3j_1'
p67
F250.36718551696549
sS'hadB_0b_le3j_3'
p68
F79.64085048400274
sS'ttw_0b_le3j_3'
p69
F22.565811795028772
sS'hadB_0b_le3j_1'
p70
F749.89350834341178
sS'ttw_0b_le3j_5'
p71
F3.0236842484354547
sS'ttw_0b_le3j_4'
p72
F8.3250110788546881
sS'hadB_0b_le3j_4'
p73
F27.93175205992533
sS'hadB_0b_le3j_5'
p74
F12.452219589915892
sS'ttw_0b_le3j_2'
p75
F76.802806014380792
ssS'chi2Prob'
p76
F0.98587382895847719
sS'parBestFit'
p77
(dp78
g4
F1.0035452856735432
sg5
F0.98403432814473257
sg6
F1.006348594043045
sg7
F1.0035339019662224
sg8
F0.99680083010998055
sg9
F0.99669526388825369
sg10
F1.0010900506313658
sg11
F0.66612968010611118
sg12
F0.63484229741441756
sg13
F0.71665531372544156
sg14
F0.68591680643616415
sg15
F0.75717708585189847
sg16
F0.70195170496308124
sg17
F0.67654112552803691
sg18
F12.452219589915892
sg19
F27.93175205992533
sg20
F9.2213046419188593
sg21
F749.89350834341178
sg22
F2661.0494563191924
sg23
F79.64085048400274
sg24
F244.53013592645797
sg25
F0.95820401526636678
sg26
F1.0070931090456605
sg27
F1.0072396382723798
sg28
F1.011294193645154
sg29
F0.99465604211668546
sg30
F1.0037439922305649
sg31
F0.9925357027105336
ss.