(dp1
S'parError'
p2
(dp3
S'rhoMuonW_2b_ge2j_6'
p4
F0.10459926410336645
sS'rhoMuonW_2b_ge2j_4'
p5
F0.10307032248573333
sS'rhoMuonW_2b_ge2j_5'
p6
F0.10398590195681839
sS'rhoMuonW_2b_ge2j_2'
p7
F0.079369308338634426
sS'rhoMuonW_2b_ge2j_3'
p8
F0.097086726739859408
sS'rhoMuonW_2b_ge2j_0'
p9
F0.040763965517809531
sS'rhoMuonW_2b_ge2j_1'
p10
F0.04452769291714298
sS'ewk_2b_ge2j_1'
p11
F3.3878046656070602
sS'ewk_2b_ge2j_0'
p12
F6.8101709621330428
sS'ewk_2b_ge2j_3'
p13
F1.015151420973563
sS'ewk_2b_ge2j_2'
p14
F2.1162246694821985
sS'ewk_2b_ge2j_5'
p15
F0.31664462817472594
sS'ewk_2b_ge2j_4'
p16
F0.27941958632418062
sS'ewk_2b_ge2j_6'
p17
F0.13037860347631242
ssS'lMax'
p18
F-30.275448374306777
sS'funcBestFit'
p19
(dp20
S'muonB_2b_ge2j_1'
p21
F708.93151265769427
sS'muonB_2b_ge2j_3'
p22
F145.84330178473985
sS'muonB_2b_ge2j_2'
p23
F315.0807083808773
sS'muonB_2b_ge2j_5'
p24
F27.492802798292473
sS'muonB_2b_ge2j_4'
p25
F61.264345945837185
sS'qcd_2b_ge2j_2'
p26
F0
sS'qcd_2b_ge2j_3'
p27
F0
sS'qcd_2b_ge2j_1'
p28
F0
sS'qcd_2b_ge2j_6'
p29
F0
sS'muonB_2b_ge2j_6'
p30
F16.503040509433099
sS'qcd_2b_ge2j_4'
p31
F0
sS'qcd_2b_ge2j_5'
p32
F0
sS'hadB_2b_ge2j_6'
p33
F0.49650476944370414
sS'muonB_2b_ge2j_0'
p34
F1336.8447656353885
sS'hadB_2b_ge2j_4'
p35
F1.7339307972304507
sS'hadB_2b_ge2j_5'
p36
F1.50950289888376
sS'hadB_2b_ge2j_2'
p37
F22.918766027366161
sS'hadB_2b_ge2j_3'
p38
F8.1545362720047212
sS'hadB_2b_ge2j_0'
p39
F147.13708377020288
sS'hadB_2b_ge2j_1'
p40
F61.062631509609936
ssS'chi2Prob'
p41
F0.33987651076777214
sS'parBestFit'
p42
(dp43
g4
F1.0057185965014066
sg5
F0.99742915910529595
sg6
F1.0051725519971177
sg7
F0.99190408894208493
sg8
F0.96942051869678381
sg9
F0.95840407356885371
sg10
F0.97195813220034333
sg11
F61.062631509609936
sg12
F147.13708377020288
sg13
F8.1545362720047212
sg14
F22.918766027366161
sg15
F1.50950289888376
sg16
F1.7339307972304507
sg17
F0.49650476944370414
ss.