(dp1
S'parError'
p2
(dp3
S'rhoMuonW_1b_le3j_6'
p4
F0.10426711010771017
sS'rhoMuonW_1b_le3j_5'
p5
F0.10429080131995039
sS'rhoMuonW_1b_le3j_4'
p6
F0.10432058636604102
sS'rhoMuonW_1b_le3j_3'
p7
F0.1042686887056577
sS'rhoMuonW_1b_le3j_2'
p8
F0.067655608448224602
sS'rhoMuonW_1b_le3j_1'
p9
F0.039212185195032334
sS'rhoMuonW_1b_le3j_0'
p10
F0.029555313161584773
sS'fZinv_1b_le3j_4'
p11
F0.14956993221583997
sS'fZinv_1b_le3j_5'
p12
F0.036879952049967468
sS'fZinv_1b_le3j_6'
p13
F0.85080431039825699
sS'fZinv_1b_le3j_0'
p14
F0.016774467361672568
sS'fZinv_1b_le3j_1'
p15
F0.026765987351914877
sS'fZinv_1b_le3j_2'
p16
F0.048345877069083831
sS'fZinv_1b_le3j_3'
p17
F0.0748367919373088
sS'ewk_1b_le3j_0'
p18
F14.339643809162254
sS'ewk_1b_le3j_1'
p19
F6.2152838021647483
sS'ewk_1b_le3j_2'
p20
F3.2123325727184575
sS'ewk_1b_le3j_3'
p21
F1.5864696929015736
sS'ewk_1b_le3j_4'
p22
F0.98238864990895491
sS'ewk_1b_le3j_5'
p23
F0.73609739146047259
sS'ewk_1b_le3j_6'
p24
F0.031648587122928562
sS'rhoPhotZ_1b_le3j_6'
p25
F0.10426282032378992
sS'rhoPhotZ_1b_le3j_4'
p26
F0.10425546168175226
sS'rhoPhotZ_1b_le3j_5'
p27
F0.1042613164316144
sS'rhoPhotZ_1b_le3j_2'
p28
F0.067638671042074106
sS'rhoPhotZ_1b_le3j_3'
p29
F0.10425282465711316
sS'rhoPhotZ_1b_le3j_0'
p30
F0.029555713282594931
sS'rhoPhotZ_1b_le3j_1'
p31
F0.039217367636956435
ssS'lMax'
p32
F-15.538082539449425
sS'funcBestFit'
p33
(dp34
S'ttw_1b_le3j_4'
p35
F1.530931169714943
sS'ttw_1b_le3j_5'
p36
F0.13919668041742761
sS'hadB_1b_le3j_5'
p37
F1.7521889882395747
sS'hadB_1b_le3j_4'
p38
F3.1550884117414602
sS'ttw_1b_le3j_0'
p39
F235.00394464979846
sS'ttw_1b_le3j_1'
p40
F49.892244314158383
sS'ttw_1b_le3j_2'
p41
F12.098694700926091
sS'hadB_1b_le3j_0'
p42
F437.4539849146031
sS'ttw_1b_le3j_6'
p43
F0.1357478611981241
sS'muonB_1b_le3j_0'
p44
F2178.0384402821678
sS'muonB_1b_le3j_1'
p45
F717.02216871610142
sS'muonB_1b_le3j_2'
p46
F285.07876588190038
sS'muonB_1b_le3j_3'
p47
F110.98109555203493
sS'muonB_1b_le3j_4'
p48
F63.990408516495599
sS'muonB_1b_le3j_5'
p49
F28.996240125888004
sS'muonB_1b_le3j_6'
p50
F23.024249653007793
sS'hadB_1b_le3j_3'
p51
F9.0479763056657205
sS'hadB_1b_le3j_2'
p52
F29.095026078101888
sS'hadB_1b_le3j_1'
p53
F109.78911337824964
sS'hadB_1b_le3j_6'
p54
F0.13574801885801846
sS'ttw_1b_le3j_3'
p55
F3.6542702171707098
sS'qcd_1b_le3j_6'
p56
F0
sS'qcd_1b_le3j_5'
p57
F0
sS'qcd_1b_le3j_4'
p58
F0
sS'qcd_1b_le3j_3'
p59
F0
sS'qcd_1b_le3j_2'
p60
F0
sS'qcd_1b_le3j_1'
p61
F0
sS'photExp_1b_le3j_5'
p62
F5.009381246492409
sS'photExp_1b_le3j_4'
p63
F3.0080500393962422
sS'photExp_1b_le3j_6'
p64
F6.1594228664797023e-07
sS'photExp_1b_le3j_1'
p65
F138.98137152203253
sS'photExp_1b_le3j_0'
p66
F426.00014052492645
sS'photExp_1b_le3j_3'
p67
F15.008216647082536
sS'photExp_1b_le3j_2'
p68
F37.003593058756202
sS'zInv_1b_le3j_6'
p69
F1.5765989436945161e-07
sS'zInv_1b_le3j_5'
p70
F1.6129923078221471
sS'zInv_1b_le3j_4'
p71
F1.6241572420265171
sS'zInv_1b_le3j_3'
p72
F5.3937060884950112
sS'zInv_1b_le3j_2'
p73
F16.9963313771758
sS'zInv_1b_le3j_1'
p74
F59.896869064091256
sS'zInv_1b_le3j_0'
p75
F202.45004026480464
ssS'chi2Prob'
p76
F0
sS'parBestFit'
p77
(dp78
g4
F0.99988536093149971
sg5
F1.0001974946988985
sg6
F1.0004126545772434
sg7
F1.0000942315917964
sg8
F1.000090015757553
sg9
F0.99992106246863699
sg10
F0.99994685204498879
sg11
F0.51477392391995092
sg12
F0.92055840930875921
sg13
F1.1614158033079747e-06
sg14
F0.46279162436781918
sg15
F0.54556291804390733
sg16
F0.58416621904896437
sg17
F0.59612292365504371
sg18
F437.4539849146031
sg19
F109.78911337824964
sg20
F29.095026078101888
sg21
F9.0479763056657205
sg22
F3.1550884117414602
sg23
F1.7521889882395747
sg24
F0.13574801885801846
sg25
F0.99998249397275263
sg26
F0.99990791184727712
sg27
F0.99993810698309515
sg28
F0.99999003599825775
sg29
F0.99991042244717676
sg30
F0.99997212129099045
sg31
F1.0000357192294962
ss.