(dp1
S'parError'
p2
(dp3
S'rhoMuonW_0b_ge2j_4'
p4
F0.10430124080366154
sS'rhoMuonW_0b_ge2j_5'
p5
F0.10418240932247863
sS'rhoMuonW_0b_ge2j_6'
p6
F0.10425865760130681
sS'rhoMuonW_0b_ge2j_0'
p7
F0.048716334870309352
sS'rhoMuonW_0b_ge2j_1'
p8
F0.048785304111033434
sS'rhoMuonW_0b_ge2j_2'
p9
F0.086089684137172107
sS'rhoMuonW_0b_ge2j_3'
p10
F0.10423741584578478
sS'fZinv_0b_ge2j_6'
p11
F0.057195118688879942
sS'fZinv_0b_ge2j_5'
p12
F0.048299966855625209
sS'fZinv_0b_ge2j_4'
p13
F0.044165542491301946
sS'fZinv_0b_ge2j_3'
p14
F0.036239572166074818
sS'fZinv_0b_ge2j_2'
p15
F0.029932153129274885
sS'fZinv_0b_ge2j_1'
p16
F0.01745445603840029
sS'fZinv_0b_ge2j_0'
p17
F0.016842192667825773
sS'ewk_0b_ge2j_3'
p18
F12.053886613222716
sS'ewk_0b_ge2j_2'
p19
F25.727048122608522
sS'ewk_0b_ge2j_1'
p20
F40.292588301839317
sS'ewk_0b_ge2j_0'
p21
F114.26867025699653
sS'ewk_0b_ge2j_6'
p22
F2.482521658697892
sS'ewk_0b_ge2j_5'
p23
F3.4423693105349482
sS'ewk_0b_ge2j_4'
p24
F5.6391791345554196
sS'rhoPhotZ_0b_ge2j_1'
p25
F0.048778887942064586
sS'rhoPhotZ_0b_ge2j_0'
p26
F0.048773759887698498
sS'rhoPhotZ_0b_ge2j_3'
p27
F0.10426783077362212
sS'rhoPhotZ_0b_ge2j_2'
p28
F0.086180186595899877
sS'rhoPhotZ_0b_ge2j_5'
p29
F0.10427716958527311
sS'rhoPhotZ_0b_ge2j_4'
p30
F0.10424187144681035
sS'rhoPhotZ_0b_ge2j_6'
p31
F0.10428469217637226
ssS'lMax'
p32
F-33.901994380950647
sS'funcBestFit'
p33
(dp34
S'photExp_0b_ge2j_4'
p35
F67.03710617653033
sS'photExp_0b_ge2j_5'
p36
F30.995810930885433
sS'photExp_0b_ge2j_6'
p37
F22.981246422584064
sS'photExp_0b_ge2j_2'
p38
F498.94153552288537
sS'qcd_0b_ge2j_1'
p39
F0
sS'qcd_0b_ge2j_2'
p40
F0
sS'qcd_0b_ge2j_3'
p41
F0
sS'qcd_0b_ge2j_4'
p42
F0
sS'qcd_0b_ge2j_5'
p43
F0
sS'qcd_0b_ge2j_6'
p44
F0
sS'ttw_0b_ge2j_0'
p45
F1169.3282423853918
sS'muonB_0b_ge2j_3'
p46
F883.01284178353421
sS'muonB_0b_ge2j_2'
p47
F1981.0296098239855
sS'muonB_0b_ge2j_1'
p48
F4167.0025624006776
sS'muonB_0b_ge2j_0'
p49
F9663.0784021900672
sS'muonB_0b_ge2j_6'
p50
F211.00308034309543
sS'muonB_0b_ge2j_5'
p51
F221.02324992883442
sS'muonB_0b_ge2j_4'
p52
F473.97978690127633
sS'photExp_0b_ge2j_3'
p53
F186.97264429736276
sS'ttw_0b_ge2j_6'
p54
F4.8069500489310411
sS'hadB_0b_ge2j_6'
p55
F15.139393990487063
sS'zInv_0b_ge2j_4'
p56
F32.965462257798556
sS'zInv_0b_ge2j_5'
p57
F16.158370621822872
sS'zInv_0b_ge2j_6'
p58
F10.332443941556022
sS'zInv_0b_ge2j_0'
p59
F1914.4572184279989
sS'zInv_0b_ge2j_1'
p60
F640.19940512273536
sS'zInv_0b_ge2j_2'
p61
F237.674676315336
sS'zInv_0b_ge2j_3'
p62
F87.965817072128303
sS'hadB_0b_ge2j_0'
p63
F3083.7854608133907
sS'photExp_0b_ge2j_0'
p64
F3841.945682778095
sS'hadB_0b_ge2j_1'
p65
F998.26677741098479
sS'photExp_0b_ge2j_1'
p66
F1315.0028802265961
sS'ttw_0b_ge2j_1'
p67
F358.06737228824949
sS'hadB_0b_ge2j_4'
p68
F49.973973432715844
sS'hadB_0b_ge2j_5'
p69
F22.324628950241255
sS'ttw_0b_ge2j_5'
p70
F6.1662583284183814
sS'ttw_0b_ge2j_4'
p71
F17.008511174917285
sS'ttw_0b_ge2j_3'
p72
F40.462378339420162
sS'ttw_0b_ge2j_2'
p73
F127.63495961014172
sS'hadB_0b_ge2j_2'
p74
F365.30963592547772
sS'hadB_0b_ge2j_3'
p75
F128.42819541154847
ssS'chi2Prob'
p76
F0
sS'parBestFit'
p77
(dp78
g4
F1.0002945314806353
sg5
F0.99931454447708257
sg6
F0.99994841909491305
sg7
F0.99956581068798833
sg8
F0.99999671923199851
sg9
F0.99967551133847365
sg10
F0.99976179845601831
sg11
F0.68248728767138767
sg12
F0.72379122886377267
sg13
F0.65965261501935057
sg14
F0.68494162664391278
sg15
F0.65061157150483995
sg16
F0.64131093973005804
sg17
F0.62081401016886384
sg18
F128.42819541154847
sg19
F365.30963592547772
sg20
F998.26677741098479
sg21
F3083.7854608133907
sg22
F15.139393990487063
sg23
F22.324628950241255
sg24
F49.973973432715844
sg25
F0.99999900892425397
sg26
F1.0001832453898207
sg27
F1.0000917916634586
sg28
F1.0005862334920788
sg29
F1.0000360769074566
sg30
F0.99969919681816377
sg31
F1.0002079771830459
ss.