(dp1
S'parError'
p2
(dp3
S'rhoMuonW_2b_ge2j_6'
p4
F0.1042653888520485
sS'rhoMuonW_2b_ge2j_4'
p5
F0.1042655498835135
sS'rhoMuonW_2b_ge2j_5'
p6
F0.10426562809702772
sS'rhoMuonW_2b_ge2j_2'
p7
F0.086132409160404488
sS'rhoMuonW_2b_ge2j_3'
p8
F0.1042616186798011
sS'rhoMuonW_2b_ge2j_0'
p9
F0.048683911020647896
sS'rhoMuonW_2b_ge2j_1'
p10
F0.048779846135170779
sS'ewk_2b_ge2j_1'
p11
F3.604010145177007
sS'ewk_2b_ge2j_0'
p12
F7.778467497158374
sS'ewk_2b_ge2j_3'
p13
F1.0362949223372753
sS'ewk_2b_ge2j_2'
p14
F2.3335593447850389
sS'ewk_2b_ge2j_5'
p15
F0.33313113179684417
sS'ewk_2b_ge2j_4'
p16
F0.28432117310955418
sS'ewk_2b_ge2j_6'
p17
F0.13572908599172262
ssS'lMax'
p18
F-12.703954216039085
sS'funcBestFit'
p19
(dp20
S'muonB_2b_ge2j_1'
p21
F697.00000172449256
sS'muonB_2b_ge2j_3'
p22
F143.0000075030722
sS'muonB_2b_ge2j_2'
p23
F314.00000182689718
sS'muonB_2b_ge2j_5'
p24
F28.000001827288305
sS'muonB_2b_ge2j_4'
p25
F61.000003470699653
sS'qcd_2b_ge2j_2'
p26
F0
sS'qcd_2b_ge2j_3'
p27
F0
sS'qcd_2b_ge2j_1'
p28
F0
sS'qcd_2b_ge2j_6'
p29
F0
sS'muonB_2b_ge2j_6'
p30
F17.00000115543433
sS'qcd_2b_ge2j_4'
p31
F0
sS'qcd_2b_ge2j_5'
p32
F0
sS'hadB_2b_ge2j_6'
p33
F0.51438095045231891
sS'muonB_2b_ge2j_0'
p34
F1319.0000018794549
sS'hadB_2b_ge2j_4'
p35
F1.7220107836058629
sS'hadB_2b_ge2j_5'
p36
F1.5453028359088865
sS'hadB_2b_ge2j_2'
p37
F22.655244180012065
sS'hadB_2b_ge2j_3'
p38
F7.751058917059698
sS'hadB_2b_ge2j_0'
p39
F139.13442929386056
sS'hadB_2b_ge2j_1'
p40
F58.351439067537633
ssS'chi2Prob'
p41
F0
sS'parBestFit'
p42
(dp43
g4
F1.0000000320825535
sg5
F1.0000000283599961
sg6
F1.0000000308954546
sg7
F1.000000003624351
sg8
F1.0000000251442567
sg9
F1.0000000009059362
sg10
F1.0000000015268462
sg11
F58.351439067537633
sg12
F139.13442929386056
sg13
F7.751058917059698
sg14
F22.655244180012065
sg15
F1.5453028359088865
sg16
F1.7220107836058629
sg17
F0.51438095045231891
ss.