(dp1
S'parError'
p2
(dp3
S'rhoMuonW_1b_ge4j_3'
p4
F0.086153246932474337
sS'rhoPhotZ_1b_ge4j_1'
p5
F0.048785747050208772
sS'rhoMuonW_1b_ge4j_2'
p6
F0.086149387396673827
sS'ewk_1b_ge4j_4'
p7
F1.5726839009499911
sS'ewk_1b_ge4j_5'
p8
F1.0353558464286861
sS'ewk_1b_ge4j_6'
p9
F1.2284950382254962
sS'ewk_1b_ge4j_0'
p10
F8.2030941121970073
sS'ewk_1b_ge4j_1'
p11
F6.2667255902910739
sS'ewk_1b_ge4j_2'
p12
F3.8701112803730524
sS'ewk_1b_ge4j_3'
p13
F1.9935837182031877
sS'rhoPhotZ_1b_ge4j_2'
p14
F0.086120447639386644
sS'rhoMuonW_1b_ge4j_5'
p15
F0.113204477951722
sS'rhoPhotZ_1b_ge4j_3'
p16
F0.086126255286403053
sS'rhoPhotZ_1b_ge4j_0'
p17
F0.048791581851506005
sS'rhoMuonW_1b_ge4j_0'
p18
F0.048770294947021398
sS'rhoPhotZ_1b_ge4j_6'
p19
F0.14811405225829172
sS'rhoMuonW_1b_ge4j_6'
p20
F0.14823369785989238
sS'fZinv_1b_ge4j_0'
p21
F0.023392921252952142
sS'fZinv_1b_ge4j_1'
p22
F0.03025507466612834
sS'fZinv_1b_ge4j_2'
p23
F0.052968025833274285
sS'fZinv_1b_ge4j_3'
p24
F0.069376828378009708
sS'fZinv_1b_ge4j_4'
p25
F0.094142041296789492
sS'fZinv_1b_ge4j_5'
p26
F0.15154261049226805
sS'fZinv_1b_ge4j_6'
p27
F0.10714076549486062
sS'rhoPhotZ_1b_ge4j_5'
p28
F0.11317934148180719
sS'rhoMuonW_1b_ge4j_4'
p29
F0.11319471441472473
sS'rhoPhotZ_1b_ge4j_4'
p30
F0.11320793581952987
sS'rhoMuonW_1b_ge4j_1'
p31
F0.048782494881048577
ssS'lMax'
p32
F-19.295731297653752
sS'funcBestFit'
p33
(dp34
S'ttw_1b_ge4j_0'
p35
F121.36109962684118
sS'ttw_1b_ge4j_1'
p36
F78.235506019452998
sS'hadB_1b_ge4j_1'
p37
F107.14757884159673
sS'hadB_1b_ge4j_0'
p38
F156.52038178738462
sS'ttw_1b_ge4j_4'
p39
F5.0350073894239502
sS'ttw_1b_ge4j_5'
p40
F1.6519967452500686
sS'hadB_1b_ge4j_5'
p41
F3.3377920716230558
sS'hadB_1b_ge4j_2'
p42
F39.060237933801268
sS'ttw_1b_ge4j_2'
p43
F25.172209400188454
sS'hadB_1b_ge4j_3'
p44
F16.081102252507716
sS'ttw_1b_ge4j_3'
p45
F10.316792115523903
sS'hadB_1b_ge4j_6'
p46
F3.65923480361361
sS'ttw_1b_ge4j_6'
p47
F1.0750673765421221
sS'photExp_1b_ge4j_1'
p48
F56.999461890325605
sS'photExp_1b_ge4j_0'
p49
F80.994151151503615
sS'photExp_1b_ge4j_3'
p50
F13.995353293259004
sS'hadB_1b_ge4j_4'
p51
F8.8954813721841912
sS'photExp_1b_ge4j_5'
p52
F3.0170859509505279
sS'photExp_1b_ge4j_4'
p53
F8.9907590068507979
sS'photExp_1b_ge4j_6'
p54
F4.9959829363779029
sS'muonB_1b_ge4j_4'
p55
F83.986410656368605
sS'muonB_1b_ge4j_5'
p56
F47.001437852893659
sS'muonB_1b_ge4j_6'
p57
F37.014524634673151
sS'muonB_1b_ge4j_0'
p58
F1048.9367905208348
sS'muonB_1b_ge4j_1'
p59
F759.95113745400704
sS'muonB_1b_ge4j_2'
p60
F324.01090419238523
sS'muonB_1b_ge4j_3'
p61
F188.02263885528529
sS'qcd_1b_ge4j_3'
p62
F0
sS'qcd_1b_ge4j_2'
p63
F0
sS'qcd_1b_ge4j_1'
p64
F0
sS'qcd_1b_ge4j_6'
p65
F0
sS'qcd_1b_ge4j_5'
p66
F0
sS'qcd_1b_ge4j_4'
p67
F0
sS'zInv_1b_ge4j_3'
p68
F5.7643101369838137
sS'zInv_1b_ge4j_2'
p69
F13.888028533612815
sS'zInv_1b_ge4j_1'
p70
F28.912072822143724
sS'zInv_1b_ge4j_0'
p71
F35.159282160543455
sS'zInv_1b_ge4j_6'
p72
F2.5841674270714878
sS'zInv_1b_ge4j_5'
p73
F1.6857953263729872
sS'zInv_1b_ge4j_4'
p74
F3.8604739827602401
sS'photExp_1b_ge4j_2'
p75
F28.020254120040079
ssS'chi2Prob'
p76
F0
sS'parBestFit'
p77
(dp78
g4
F1.0001700943162537
sg5
F1.000084397870215
sg6
F1.0001339740312916
sg7
F8.8954813721841912
sg8
F3.3377920716230558
sg9
F3.65923480361361
sg10
F156.52038178738462
sg11
F107.14757884159673
sg12
F39.060237933801268
sg13
F16.081102252507716
sg14
F0.99989291514957435
sg15
F0.99993799023422003
sg16
F1.0000115592063266
sg17
F1.0001767464179832
sg18
F0.99990591275563157
sg19
F0.99978905960906883
sg20
F1.0002927833578743
sg21
F0.22463069511485984
sg22
F0.26983412163597587
sg23
F0.35555412020659083
sg24
F0.35845242735677008
sg25
F0.43398145881478495
sg26
F0.50506301477109139
sg27
F0.70620432023644419
sg28
F0.99972357811682844
sg29
F1.0000001382223227
sg30
F1.0000683098547083
sg31
F1.0000652923790574
ss.