(dp1
S'parError'
p2
(dp3
S'ewk_2b_le3j_6'
p4
F0.015001742369654125
sS'ewk_2b_le3j_5'
p5
F0.086613050750017628
sS'ewk_2b_le3j_4'
p6
F0.042050726483342515
sS'ewk_2b_le3j_3'
p7
F0.30676191562621191
sS'ewk_2b_le3j_2'
p8
F0.52797528378351144
sS'ewk_2b_le3j_1'
p9
F1.4115929410490438
sS'ewk_2b_le3j_0'
p10
F3.3650310089790381
sS'rhoMuonW_2b_le3j_0'
p11
F0.029556831157457608
sS'rhoMuonW_2b_le3j_1'
p12
F0.03921584024999597
sS'rhoMuonW_2b_le3j_2'
p13
F0.067633859094239246
sS'rhoMuonW_2b_le3j_3'
p14
F0.10426834352602893
sS'rhoMuonW_2b_le3j_4'
p15
F0.10426744576554792
sS'rhoMuonW_2b_le3j_5'
p16
F0.10426591722723277
sS'rhoMuonW_2b_le3j_6'
p17
F0.10426585151659196
ssS'lMax'
p18
F-6.288774310632558
sS'funcBestFit'
p19
(dp20
S'qcd_2b_le3j_1'
p21
F0
sS'qcd_2b_le3j_2'
p22
F0
sS'qcd_2b_le3j_3'
p23
F0
sS'qcd_2b_le3j_4'
p24
F0
sS'qcd_2b_le3j_5'
p25
F0
sS'qcd_2b_le3j_6'
p26
F0
sS'muonB_2b_le3j_6'
p27
F1.0000000108381653
sS'muonB_2b_le3j_5'
p28
F6.0000000004684768
sS'muonB_2b_le3j_4'
p29
F14.000000013044732
sS'muonB_2b_le3j_3'
p30
F26.00000002827916
sS'muonB_2b_le3j_2'
p31
F61.000000002748713
sS'muonB_2b_le3j_1'
p32
F212.99999998838194
sS'muonB_2b_le3j_0'
p33
F638.99999991997925
sS'hadB_2b_le3j_0'
p34
F68.144049704773906
sS'hadB_2b_le3j_1'
p35
F17.881157593614272
sS'hadB_2b_le3j_2'
p36
F3.6466520196019681
sS'hadB_2b_le3j_3'
p37
F1.3816536439566074
sS'hadB_2b_le3j_4'
p38
F0.14658911665016261
sS'hadB_2b_le3j_5'
p39
F0.20567478869247535
sS'hadB_2b_le3j_6'
p40
F0.014924395758014741
ssS'chi2Prob'
p41
F0
sS'parBestFit'
p42
(dp43
g4
F0.014924395758014741
sg5
F0.20567478869247535
sg6
F0.14658911665016261
sg7
F1.3816536439566074
sg8
F3.6466520196019681
sg9
F17.881157593614272
sg10
F68.144049704773906
sg11
F1.0000000000710565
sg12
F1.0000000000914926
sg13
F1.0000000000251927
sg14
F1.0000000012880199
sg15
F0.99999999991931632
sg16
F1.0000000000523217
sg17
F0.99999999993773325
ss.