(dp1
S'parError'
p2
(dp3
S'ewk_2b_le3j_6'
p4
F0.014788179841615512
sS'ewk_2b_le3j_5'
p5
F0.083495061931472825
sS'ewk_2b_le3j_4'
p6
F0.041492926555385112
sS'ewk_2b_le3j_3'
p7
F0.30266211781711516
sS'ewk_2b_le3j_2'
p8
F0.52491827214682529
sS'ewk_2b_le3j_1'
p9
F1.3606251154350524
sS'ewk_2b_le3j_0'
p10
F3.1394761604681278
sS'rhoMuonW_2b_le3j_0'
p11
F0.028682083199439545
sS'rhoMuonW_2b_le3j_1'
p12
F0.038496526309347301
sS'rhoMuonW_2b_le3j_2'
p13
F0.066415265269055723
sS'rhoMuonW_2b_le3j_3'
p14
F0.10285951233455465
sS'rhoMuonW_2b_le3j_4'
p15
F0.10434748154676626
sS'rhoMuonW_2b_le3j_5'
p16
F0.10437285548959857
sS'rhoMuonW_2b_le3j_6'
p17
F0.10427294584782199
ssS'lMax'
p18
F-16.552691954036018
sS'funcBestFit'
p19
(dp20
S'qcd_2b_le3j_1'
p21
F0
sS'qcd_2b_le3j_2'
p22
F0
sS'qcd_2b_le3j_3'
p23
F0
sS'qcd_2b_le3j_4'
p24
F0
sS'qcd_2b_le3j_5'
p25
F0
sS'qcd_2b_le3j_6'
p26
F0
sS'muonB_2b_le3j_6'
p27
F0.98631104105915335
sS'muonB_2b_le3j_5'
p28
F5.8093078179584303
sS'muonB_2b_le3j_4'
p29
F13.856475056351298
sS'muonB_2b_le3j_3'
p30
F26.581393965311907
sS'muonB_2b_le3j_2'
p31
F63.195010708135911
sS'muonB_2b_le3j_1'
p32
F216.7215906294737
sS'muonB_2b_le3j_0'
p33
F643.1090235591231
sS'hadB_2b_le3j_0'
p34
F68.828519237465414
sS'hadB_2b_le3j_1'
p35
F18.29785028736697
sS'hadB_2b_le3j_2'
p36
F3.8159617031105695
sS'hadB_2b_le3j_3'
p37
F1.4215072478689927
sS'hadB_2b_le3j_4'
p38
F0.14486022461820347
sS'hadB_2b_le3j_5'
p39
F0.19872843267258578
sS'hadB_2b_le3j_6'
p40
F0.014717915492272748
ssS'chi2Prob'
p41
F0.87638685405295735
sS'parBestFit'
p42
(dp43
g4
F0.014717915492272748
sg5
F0.19872843267258578
sg6
F0.14486022461820347
sg7
F1.4215072478689927
sg8
F3.8159617031105695
sg9
F18.29785028736697
sg10
F68.828519237465414
sg11
F0.99642188670656695
sg12
F0.99430159729762657
sg13
F0.99001841347553787
sg14
F0.99369822191942547
sg15
F1.0015607615116797
sg16
F1.0020610721616463
sg17
F1.0001481639529266
ss.