(dp1
S'parError'
p2
(dp3
S'rhoMuonW_0b_le3j_2'
p4
F0.067617581835283047
sS'rhoMuonW_0b_le3j_3'
p5
F0.1042547413614282
sS'rhoMuonW_0b_le3j_0'
p6
F0.029556175239185523
sS'rhoMuonW_0b_le3j_1'
p7
F0.039208805800239499
sS'rhoMuonW_0b_le3j_6'
p8
F0.10422732932218903
sS'rhoMuonW_0b_le3j_4'
p9
F0.10427263153326194
sS'rhoMuonW_0b_le3j_5'
p10
F0.10426330959714464
sS'fZinv_0b_le3j_1'
p11
F0.014551172550010372
sS'fZinv_0b_le3j_0'
p12
F0.010728860663874018
sS'fZinv_0b_le3j_3'
p13
F0.036996487156567448
sS'fZinv_0b_le3j_2'
p14
F0.024073470922949924
sS'fZinv_0b_le3j_5'
p15
F0.052709481588450346
sS'fZinv_0b_le3j_4'
p16
F0.047350039505666075
sS'fZinv_0b_le3j_6'
p17
F0.06814140638672328
sS'ewk_0b_le3j_5'
p18
F2.517876649063151
sS'ewk_0b_le3j_4'
p19
F3.782403051211908
sS'ewk_0b_le3j_6'
p20
F1.7150529378792965
sS'ewk_0b_le3j_1'
p21
F27.330657064482239
sS'ewk_0b_le3j_0'
p22
F66.062106258479162
sS'ewk_0b_le3j_3'
p23
F7.7580932325860203
sS'ewk_0b_le3j_2'
p24
F15.544307667297218
sS'rhoPhotZ_0b_le3j_3'
p25
F0.10422465156627514
sS'rhoPhotZ_0b_le3j_2'
p26
F0.067613573096647284
sS'rhoPhotZ_0b_le3j_1'
p27
F0.039205480843077622
sS'rhoPhotZ_0b_le3j_0'
p28
F0.029550613423430849
sS'rhoPhotZ_0b_le3j_6'
p29
F0.10427611011074722
sS'rhoPhotZ_0b_le3j_5'
p30
F0.10426703144022853
sS'rhoPhotZ_0b_le3j_4'
p31
F0.10431461352649096
ssS'lMax'
p32
F-29.617419984137868
sS'funcBestFit'
p33
(dp34
S'photExp_0b_le3j_0'
p35
F3475.2198187409513
sS'photExp_0b_le3j_1'
p36
F1071.8972850739137
sS'photExp_0b_le3j_2'
p37
F365.9374180783733
sS'photExp_0b_le3j_3'
p38
F120.05868266225566
sS'photExp_0b_le3j_4'
p39
F38.996683955017488
sS'photExp_0b_le3j_5'
p40
F17.99956152421624
sS'photExp_0b_le3j_6'
p41
F14.986872253840497
sS'zInv_0b_le3j_2'
p42
F169.65453462572415
sS'zInv_0b_le3j_3'
p43
F53.022529789681442
sS'zInv_0b_le3j_0'
p44
F1715.1484037658756
sS'zInv_0b_le3j_1'
p45
F505.37223003352915
sS'zInv_0b_le3j_6'
p46
F5.995347322244049
sS'zInv_0b_le3j_4'
p47
F19.110697677084236
sS'zInv_0b_le3j_5'
p48
F9.6472309241441891
sS'muonB_0b_le3j_5'
p49
F141.00024658888279
sS'hadB_0b_le3j_2'
p50
F246.79565580545022
sS'muonB_0b_le3j_6'
p51
F145.99735762435699
sS'muonB_0b_le3j_1'
p52
F3395.0402264812546
sS'muonB_0b_le3j_0'
p53
F8584.0376003740912
sS'muonB_0b_le3j_3'
p54
F610.98815680978316
sS'ttw_0b_le3j_0'
p55
F978.67665677147352
sS'hadB_0b_le3j_0'
p56
F2693.8250605373491
sS'qcd_0b_le3j_2'
p57
F0
sS'qcd_0b_le3j_3'
p58
F0
sS'qcd_0b_le3j_1'
p59
F0
sS'qcd_0b_le3j_6'
p60
F0
sS'qcd_0b_le3j_4'
p61
F0
sS'qcd_0b_le3j_5'
p62
F0
sS'hadB_0b_le3j_6'
p63
F8.9640334048376182
sS'muonB_0b_le3j_4'
p64
F330.05435014696195
sS'ttw_0b_le3j_6'
p65
F2.9686860825935688
sS'muonB_0b_le3j_2'
p66
F1478.0496608608532
sS'ttw_0b_le3j_1'
p67
F251.46322170103383
sS'hadB_0b_le3j_3'
p68
F75.175906439613968
sS'ttw_0b_le3j_3'
p69
F22.153376649932522
sS'hadB_0b_le3j_1'
p70
F756.83545173456298
sS'ttw_0b_le3j_5'
p71
F3.0294167382167427
sS'ttw_0b_le3j_4'
p72
F8.2928336502603504
sS'hadB_0b_le3j_4'
p73
F27.403531327344584
sS'hadB_0b_le3j_5'
p74
F12.676647662360931
sS'ttw_0b_le3j_2'
p75
F77.141121179726071
ssS'chi2Prob'
p76
F0
sS'parBestFit'
p77
(dp78
g4
F0.99974638840964802
sg5
F0.99992577775894853
sg6
F1.0000278579977659
sg7
F0.99985127115111538
sg8
F0.99975260951534695
sg9
F0.99979798759580008
sg10
F0.99998415860294165
sg11
F0.66774386542713526
sg12
F0.63669628324852967
sg13
F0.70531280966026644
sg14
F0.68742917727637531
sg15
F0.76102382752093178
sg16
F0.69738083930864214
sg17
F0.66882251007772253
sg18
F12.676647662360931
sg19
F27.403531327344584
sg20
F8.9640334048376182
sg21
F756.83545173456298
sg22
F2693.8250605373491
sg23
F75.175906439613968
sg24
F246.79565580545022
sg25
F0.99946136099298022
sg26
F0.99985068706256663
sg27
F0.99985066191332528
sg28
F0.9998318158197006
sg29
F1.0001371085712367
sg30
F1.0000094137095905
sg31
F1.0002194187666318
ss.