(dp1
S'parError'
p2
(dp3
S'rhoMuonW_1b_le3j_6'
p4
F0.10435062978793525
sS'rhoMuonW_1b_le3j_5'
p5
F0.10429568790384935
sS'rhoMuonW_1b_le3j_4'
p6
F0.1037918012445348
sS'rhoMuonW_1b_le3j_3'
p7
F0.10380753303222162
sS'rhoMuonW_1b_le3j_2'
p8
F0.067004572084179537
sS'rhoMuonW_1b_le3j_1'
p9
F0.038805721304485674
sS'rhoMuonW_1b_le3j_0'
p10
F0.028393679174004316
sS'fZinv_1b_le3j_4'
p11
F0.13150445263164609
sS'fZinv_1b_le3j_5'
p12
F0.037854547236925828
sS'fZinv_1b_le3j_6'
p13
F0.79033818760847308
sS'fZinv_1b_le3j_0'
p14
F0.016456367526492405
sS'fZinv_1b_le3j_1'
p15
F0.02568383920883005
sS'fZinv_1b_le3j_2'
p16
F0.045089964859598874
sS'fZinv_1b_le3j_3'
p17
F0.07143201939878574
sS'ewk_1b_le3j_0'
p18
F11.858610600484639
sS'ewk_1b_le3j_1'
p19
F5.270312384080114
sS'ewk_1b_le3j_2'
p20
F2.779729188789652
sS'ewk_1b_le3j_3'
p21
F1.3702293121718685
sS'ewk_1b_le3j_4'
p22
F0.91886708381885285
sS'ewk_1b_le3j_5'
p23
F0.60373098464657793
sS'ewk_1b_le3j_6'
p24
F0.031328286185819121
sS'rhoPhotZ_1b_le3j_6'
p25
F0.10427057332033401
sS'rhoPhotZ_1b_le3j_4'
p26
F0.10351052014330914
sS'rhoPhotZ_1b_le3j_5'
p27
F0.10423069428110687
sS'rhoPhotZ_1b_le3j_2'
p28
F0.066359433892646091
sS'rhoPhotZ_1b_le3j_3'
p29
F0.10333844021688643
sS'rhoPhotZ_1b_le3j_0'
p30
F0.028689304836800544
sS'rhoPhotZ_1b_le3j_1'
p31
F0.038641281776400027
ssS'lMax'
p32
F-30.564473100460479
sS'funcBestFit'
p33
(dp34
S'ttw_1b_le3j_4'
p35
F1.5434274503235643
sS'ttw_1b_le3j_5'
p36
F0.13886683993743801
sS'hadB_1b_le3j_5'
p37
F1.5781088690412193
sS'hadB_1b_le3j_4'
p38
F3.3612637218069041
sS'ttw_1b_le3j_0'
p39
F235.524979422765
sS'ttw_1b_le3j_1'
p40
F49.538583179082238
sS'ttw_1b_le3j_2'
p41
F12.120440311204193
sS'hadB_1b_le3j_0'
p42
F438.91697729583325
sS'ttw_1b_le3j_6'
p43
F0.13454218338825399
sS'muonB_1b_le3j_0'
p44
F2179.6063914850511
sS'muonB_1b_le3j_1'
p45
F714.68988377732694
sS'muonB_1b_le3j_2'
p46
F285.22201020718194
sS'muonB_1b_le3j_3'
p47
F110.62666397091822
sS'muonB_1b_le3j_4'
p48
F64.293203402519808
sS'muonB_1b_le3j_5'
p49
F28.940151882863692
sS'muonB_1b_le3j_6'
p50
F22.857847368652514
sS'hadB_1b_le3j_3'
p51
F8.8227850741987766
sS'hadB_1b_le3j_2'
p52
F29.336452679328445
sS'hadB_1b_le3j_1'
p53
F108.02020925352767
sS'hadB_1b_le3j_6'
p54
F0.13454236728764002
sS'ttw_1b_le3j_3'
p55
F3.6299094703022128
sS'qcd_1b_le3j_6'
p56
F0
sS'qcd_1b_le3j_5'
p57
F0
sS'qcd_1b_le3j_4'
p58
F0
sS'qcd_1b_le3j_3'
p59
F0
sS'qcd_1b_le3j_2'
p60
F0
sS'qcd_1b_le3j_1'
p61
F0
sS'photExp_1b_le3j_5'
p62
F4.4940757718391389
sS'photExp_1b_le3j_4'
p63
F3.3542653646316491
sS'photExp_1b_le3j_6'
p64
F7.1849308281993084e-07
sS'photExp_1b_le3j_1'
p65
F136.27863896442426
sS'photExp_1b_le3j_0'
p66
F427.44994280154947
sS'photExp_1b_le3j_3'
p67
F14.525041140509581
sS'photExp_1b_le3j_2'
p68
F37.411010450523968
sS'zInv_1b_le3j_6'
p69
F1.8389938601345599e-07
sS'zInv_1b_le3j_5'
p70
F1.4392420291037813
sS'zInv_1b_le3j_4'
p71
F1.8178362714833398
sS'zInv_1b_le3j_3'
p72
F5.1928756038965638
sS'zInv_1b_le3j_2'
p73
F17.21601236812425
sS'zInv_1b_le3j_1'
p74
F58.48162607444543
sS'zInv_1b_le3j_0'
p75
F203.39199787306828
ssS'chi2Prob'
p76
F0.99425579658716212
sS'parBestFit'
p77
(dp78
g4
F1.0015544783766321
sg5
F1.0006338867919975
sg6
F0.99700836985966079
sg7
F1.0035906239731036
sg8
F0.99879734361781536
sg9
F1.0037839030903197
sg10
F0.99845300307814244
sg11
F0.54081929355609482
sg12
F0.91200427127577921
sg13
F1.3668511244513404e-06
sg14
F0.46339514849975966
sg15
F0.54139523037940762
sg16
F0.58684710644158056
sg17
F0.58857555298298414
sg18
F438.91697729583325
sg19
F108.02020925352767
sg20
F29.336452679328445
sg21
F8.8227850741987766
sg22
F3.3612637218069041
sg23
F1.5781088690412193
sg24
F0.13454236728764002
sg25
F1.0000366568102526
sg26
F0.99619802019165926
sg27
F1.0053745508756471
sg28
F0.99809950176562856
sg29
F1.005145041094279
sg30
F0.99872844288499252
sg31
F1.0043183288541404
ss.