(dp1
S'parError'
p2
(dp3
S'ewk_1b_ge2j_2'
p4
F5.9491809051800466
sS'ewk_1b_ge2j_3'
p5
F2.89414964900425
sS'ewk_1b_ge2j_0'
p6
F24.237323847286575
sS'ewk_1b_ge2j_1'
p7
F10.464653860762837
sS'ewk_1b_ge2j_6'
p8
F0.84223980553333999
sS'ewk_1b_ge2j_4'
p9
F1.9751492286940682
sS'ewk_1b_ge2j_5'
p10
F1.2486878589317447
sS'fZinv_1b_ge2j_6'
p11
F0.11760308094669539
sS'fZinv_1b_ge2j_4'
p12
F0.082390600242574941
sS'fZinv_1b_ge2j_5'
p13
F0.091629831194556977
sS'rhoPhotZ_1b_ge2j_4'
p14
F0.10424383984149282
sS'rhoPhotZ_1b_ge2j_5'
p15
F0.1042034130531051
sS'fZinv_1b_ge2j_0'
p16
F0.020116810048661393
sS'rhoMuonW_1b_ge2j_5'
p17
F0.10426040217131416
sS'rhoMuonW_1b_ge2j_4'
p18
F0.10422021294425582
sS'rhoMuonW_1b_ge2j_6'
p19
F0.10419639524720931
sS'rhoMuonW_1b_ge2j_1'
p20
F0.048778084956892509
sS'rhoMuonW_1b_ge2j_0'
p21
F0.048802297937621142
sS'rhoMuonW_1b_ge2j_3'
p22
F0.10425569000091806
sS'rhoMuonW_1b_ge2j_2'
p23
F0.086073257798304215
sS'rhoPhotZ_1b_ge2j_0'
p24
F0.048790666723814768
sS'rhoPhotZ_1b_ge2j_1'
p25
F0.048777677094007266
sS'rhoPhotZ_1b_ge2j_2'
p26
F0.086187330889899882
sS'rhoPhotZ_1b_ge2j_3'
p27
F0.10426860586622677
sS'fZinv_1b_ge2j_2'
p28
F0.043979570537797968
sS'fZinv_1b_ge2j_3'
p29
F0.06005836808980014
sS'rhoPhotZ_1b_ge2j_6'
p30
F0.10421251065629417
sS'fZinv_1b_ge2j_1'
p31
F0.024771765709276944
ssS'lMax'
p32
F-23.77672115019827
sS'funcBestFit'
p33
(dp34
S'ttw_1b_ge2j_6'
p35
F1.2875742738225475
sS'hadB_1b_ge2j_6'
p36
F3.0740928058931138
sS'ttw_1b_ge2j_2'
p37
F38.890714738798358
sS'ttw_1b_ge2j_3'
p38
F14.01987772770746
sS'hadB_1b_ge2j_3'
p39
F25.113996113783976
sS'hadB_1b_ge2j_2'
p40
F69.727115579616836
sS'qcd_1b_ge2j_1'
p41
F0
sS'photExp_1b_ge2j_2'
p42
F65.010591547231854
sS'qcd_1b_ge2j_3'
p43
F0
sS'qcd_1b_ge2j_2'
p44
F0
sS'qcd_1b_ge2j_5'
p45
F0
sS'qcd_1b_ge2j_4'
p46
F0
sS'photExp_1b_ge2j_5'
p47
F8.0095206483491435
sS'qcd_1b_ge2j_6'
p48
F0
sS'hadB_1b_ge2j_5'
p49
F5.1619375716973721
sS'hadB_1b_ge2j_4'
p50
F12.650929836059948
sS'ttw_1b_ge2j_4'
p51
F6.9653228436790293
sS'ttw_1b_ge2j_5'
p52
F1.8623517956139355
sS'hadB_1b_ge2j_1'
p53
F217.49162890290259
sS'hadB_1b_ge2j_0'
p54
F594.02602487902789
sS'ttw_1b_ge2j_0'
p55
F357.0152072591398
sS'ttw_1b_ge2j_1'
p56
F128.89942350635908
sS'zInv_1b_ge2j_5'
p57
F3.2995857760834366
sS'zInv_1b_ge2j_4'
p58
F5.6856069923809187
sS'zInv_1b_ge2j_6'
p59
F1.7865185320705663
sS'zInv_1b_ge2j_1'
p60
F88.592205396543505
sS'zInv_1b_ge2j_0'
p61
F237.01081761988809
sS'zInv_1b_ge2j_3'
p62
F11.094118386076518
sS'zInv_1b_ge2j_2'
p63
F30.836400840818477
sS'photExp_1b_ge2j_3'
p64
F28.993211729127808
sS'photExp_1b_ge2j_1'
p65
F195.99667904788052
sS'photExp_1b_ge2j_0'
p66
F506.86555511244211
sS'photExp_1b_ge2j_6'
p67
F5.0076232811730401
sS'muonB_1b_ge2j_2'
p68
F608.96599923956671
sS'muonB_1b_ge2j_3'
p69
F298.99009237842125
sS'muonB_1b_ge2j_0'
p70
F3226.9273386085415
sS'muonB_1b_ge2j_1'
p71
F1476.9237604647988
sS'muonB_1b_ge2j_6'
p72
F59.987269295800296
sS'muonB_1b_ge2j_4'
p73
F147.99613693579525
sS'muonB_1b_ge2j_5'
p74
F75.995362393683578
sS'photExp_1b_ge2j_4'
p75
F11.98759766370711
ssS'chi2Prob'
p76
F0
sS'parBestFit'
p77
(dp78
g4
F69.727115579616836
sg5
F25.113996113783976
sg6
F594.02602487902789
sg7
F217.49162890290259
sg8
F3.0740928058931138
sg9
F12.650929836059948
sg10
F5.1619375716973721
sg11
F0.58115308966787371
sg12
F0.44942206352095815
sg13
F0.63921458372044038
sg14
F0.99990586631753464
sg15
F0.99953089200816136
sg16
F0.3989906295236052
sg17
F0.99997357558422995
sg18
F0.99971205383030415
sg19
F0.99956353865956382
sg20
F1.0000251623199519
sg21
F1.0004170600012641
sg22
F0.99997292370965429
sg23
F0.99964072854740282
sg24
F1.0002867567912457
sg25
F0.99997575799768801
sg26
F1.0005215681095396
sg27
F1.0000597930026873
sg28
F0.44224403353682984
sg29
F0.44175042218738897
sg30
F0.99962021236557841
sg31
F0.40733616205566603
ss.