(dp1
S'parError'
p2
(dp3
S'rhoMuonW_1b_le3j_7'
p4
F0.14819444051549524
sS'rhoMuonW_1b_le3j_6'
p5
F0.14820577779323552
sS'rhoMuonW_1b_le3j_5'
p6
F0.14806262661978481
sS'rhoMuonW_1b_le3j_4'
p7
F0.10421184750255774
sS'rhoMuonW_1b_le3j_3'
p8
F0.10423350786938268
sS'rhoMuonW_1b_le3j_2'
p9
F0.04878861867244022
sS'rhoMuonW_1b_le3j_1'
p10
F0.039213442389898101
sS'rhoMuonW_1b_le3j_0'
p11
F0.029560894031288809
sS'fZinv_1b_le3j_4'
p12
F0.11017552425775698
sS'fZinv_1b_le3j_5'
p13
F0.090910688460430655
sS'fZinv_1b_le3j_6'
p14
F0.18485849354308748
sS'fZinv_1b_le3j_7'
p15
F0.87588673400524386
sS'fZinv_1b_le3j_0'
p16
F0.016573166605026168
sS'fZinv_1b_le3j_1'
p17
F0.026347742488726011
sS'fZinv_1b_le3j_2'
p18
F0.041199403578488336
sS'fZinv_1b_le3j_3'
p19
F0.074492481516810705
sS'ewk_1b_le3j_0'
p20
F12.579038295957673
sS'ewk_1b_le3j_1'
p21
F6.0342603743184142
sS'ewk_1b_le3j_2'
p22
F3.2340084299281955
sS'ewk_1b_le3j_3'
p23
F1.5000258438419514
sS'ewk_1b_le3j_4'
p24
F0.94721920808279192
sS'ewk_1b_le3j_5'
p25
F0.63861690056976606
sS'ewk_1b_le3j_6'
p26
F0.28072468953536933
sS'ewk_1b_le3j_7'
p27
F0.047356231331134868
sS'rhoPhotZ_1b_le3j_6'
p28
F0.14817627561082447
sS'rhoPhotZ_1b_le3j_7'
p29
F0.14814834669347415
sS'rhoPhotZ_1b_le3j_4'
p30
F0.1042841755923628
sS'rhoPhotZ_1b_le3j_5'
p31
F0.14813794501289579
sS'rhoPhotZ_1b_le3j_2'
p32
F0.048779416974885248
sS'rhoPhotZ_1b_le3j_3'
p33
F0.10427720164908294
sS'rhoPhotZ_1b_le3j_0'
p34
F0.029557885975774134
sS'rhoPhotZ_1b_le3j_1'
p35
F0.0392220487407966
ssS'lMax'
p36
F-17.665059274299093
sS'funcBestFit'
p37
(dp38
S'ttw_1b_le3j_4'
p39
F1.6509649117706282
sS'ttw_1b_le3j_5'
p40
F0.30022287124912539
sS'hadB_1b_le3j_5'
p41
F1.5183826677575429
sS'hadB_1b_le3j_4'
p42
F3.807055970762355
sS'ttw_1b_le3j_0'
p43
F207.6212822854142
sS'ttw_1b_le3j_1'
p44
F49.446927952644749
sS'ttw_1b_le3j_2'
p45
F15.294000582519635
sS'hadB_1b_le3j_0'
p46
F387.88721012323145
sS'ttw_1b_le3j_6'
p47
F0.086294405808377814
sS'muonB_1b_le3j_0'
p48
F2272.0694799554099
sS'muonB_1b_le3j_1'
p49
F787.00900952257348
sS'muonB_1b_le3j_2'
p50
F324.98179085302462
sS'ttw_1b_le3j_7'
p51
F0.1234832298991872
sS'muonB_1b_le3j_4'
p52
F63.009264244764012
sS'muonB_1b_le3j_5'
p53
F24.997053981978254
sS'muonB_1b_le3j_6'
p54
F16.004758368074327
sS'muonB_1b_le3j_7'
p55
F8.0032820365426875
sS'hadB_1b_le3j_3'
p56
F8.6390045438660916
sS'hadB_1b_le3j_2'
p57
F35.370147830527664
sS'hadB_1b_le3j_1'
p58
F108.46131598433388
sS'hadB_1b_le3j_6'
p59
F0.3629960149327971
sS'ttw_1b_le3j_3'
p60
F3.5306184740432873
sS'qcd_1b_le3j_7'
p61
F0
sS'qcd_1b_le3j_6'
p62
F0
sS'qcd_1b_le3j_5'
p63
F0
sS'qcd_1b_le3j_4'
p64
F0
sS'qcd_1b_le3j_3'
p65
F0
sS'qcd_1b_le3j_2'
p66
F0
sS'qcd_1b_le3j_1'
p67
F0
sS'photExp_1b_le3j_5'
p68
F3.9834893021891231
sS'photExp_1b_le3j_4'
p69
F5.9913808772545316
sS'photExp_1b_le3j_7'
p70
F7.9680382824051074e-06
sS'photExp_1b_le3j_6'
p71
F0.99535170240541393
sS'photExp_1b_le3j_1'
p72
F143.97926766640086
sS'photExp_1b_le3j_0'
p73
F444.01710904676463
sS'photExp_1b_le3j_3'
p74
F14.992418577723743
sS'photExp_1b_le3j_2'
p75
F48.992921595926482
sS'zInv_1b_le3j_7'
p76
F2.1672999323471795e-06
sS'zInv_1b_le3j_6'
p77
F0.27670160912441927
sS'zInv_1b_le3j_5'
p78
F1.2181597965084177
sS'zInv_1b_le3j_4'
p79
F2.1560910589917266
sS'zInv_1b_le3j_3'
p80
F5.1083860698228047
sS'zInv_1b_le3j_2'
p81
F20.076147248008031
sS'zInv_1b_le3j_1'
p82
F59.01438803168913
sS'zInv_1b_le3j_0'
p83
F180.26592783781726
sS'hadB_1b_le3j_7'
p84
F0.12348539719911955
sS'muonB_1b_le3j_3'
p85
F136.9948925622283
ssS'chi2Prob'
p86
F0
sS'parBestFit'
p87
(dp88
g4
F1.000157544293877
sg5
F1.0002515556761615
sg6
F0.99963331955142043
sg7
F0.99957666680596524
sg8
F0.99977934686174219
sg9
F1.0001312865277929
sg10
F0.99994482401477991
sg11
F1.0000603202334013
sg12
F0.56634078289108369
sg13
F0.80227456646846729
sg14
F0.76227175434872518
sg15
F1.7551062566956155e-05
sg16
F0.46473800407223254
sg17
F0.54410540289049369
sg18
F0.56760145148956609
sg19
F0.5913165161430417
sg20
F387.88721012323145
sg21
F108.46131598433388
sg22
F35.370147830527664
sg23
F8.6390045438660916
sg24
F3.807055970762355
sg25
F1.5183826677575429
sg26
F0.3629960149327971
sg27
F0.12348539719911955
sg28
F1.0001493307336928
sg29
F1.0000029901108347
sg30
F1.0001423680928765
sg31
F1.0001156381204876
sg32
F0.99999164329171708
sg33
F1.0001066774620024
sg34
F1.000008236827312
sg35
F1.0001214643343954
ss.