(dp1
S'parError'
p2
(dp3
S'rhoMuonW_1b_ge4j_7'
p4
F0.18306822205644407
sS'rhoMuonW_1b_ge4j_3'
p5
F0.11984237911542961
sS'rhoMuonW_1b_ge4j_0'
p6
F0.0283309764962838
sS'rhoMuonW_1b_ge4j_6'
p7
F0.12210323534041378
sS'rhoMuonW_1b_ge4j_2'
p8
F0.057050934837499234
sS'ewk_1b_ge4j_4'
p9
F1.2493734135355972
sS'ewk_1b_ge4j_5'
p10
F1.4471369258949611
sS'ewk_1b_ge4j_6'
p11
F0.79137407188085662
sS'ewk_1b_ge4j_7'
p12
F0.62871043383129122
sS'ewk_1b_ge4j_0'
p13
F6.646112448929486
sS'ewk_1b_ge4j_1'
p14
F5.3594543220244546
sS'ewk_1b_ge4j_2'
p15
F3.316409925223688
sS'ewk_1b_ge4j_3'
p16
F2.107790616610127
sS'rhoPhotZ_1b_ge4j_2'
p17
F0.057806486821749825
sS'rhoMuonW_1b_ge4j_5'
p18
F0.12130207726089909
sS'rhoPhotZ_1b_ge4j_3'
p19
F0.12213217490699374
sS'rhoPhotZ_1b_ge4j_0'
p20
F0.029437252838722339
sS'rhoPhotZ_1b_ge4j_1'
p21
F0.038845717234022692
sS'rhoPhotZ_1b_ge4j_6'
p22
F0.12172364025493326
sS'rhoPhotZ_1b_ge4j_7'
p23
F0.18569946520935526
sS'fZinv_1b_ge4j_0'
p24
F0.019955005798067277
sS'fZinv_1b_ge4j_1'
p25
F0.026931763706230155
sS'fZinv_1b_ge4j_2'
p26
F0.045257411938304626
sS'fZinv_1b_ge4j_3'
p27
F0.073595256729051095
sS'fZinv_1b_ge4j_4'
p28
F0.10002364177215967
sS'fZinv_1b_ge4j_5'
p29
F0.12310810172800807
sS'fZinv_1b_ge4j_6'
p30
F0.10785408891098219
sS'fZinv_1b_ge4j_7'
p31
F0.1564610880557657
sS'rhoMuonW_1b_ge4j_4'
p32
F0.12013004280783046
sS'rhoPhotZ_1b_ge4j_5'
p33
F0.12049835690133015
sS'rhoPhotZ_1b_ge4j_4'
p34
F0.12002769068371494
sS'rhoMuonW_1b_ge4j_1'
p35
F0.037462017471550535
ssS'lMax'
p36
F-39.715014099015377
sS'funcBestFit'
p37
(dp38
S'ttw_1b_ge4j_0'
p39
F146.42720038852298
sS'ttw_1b_ge4j_1'
p40
F85.623450617473324
sS'hadB_1b_ge4j_1'
p41
F121.38859060178325
sS'hadB_1b_ge4j_0'
p42
F190.67444996159284
sS'ttw_1b_ge4j_4'
p43
F3.4534421303479004
sS'ttw_1b_ge4j_5'
p44
F2.2766830419679862
sS'hadB_1b_ge4j_5'
p45
F5.4260112920425492
sS'hadB_1b_ge4j_2'
p46
F44.829734365881336
sS'ttw_1b_ge4j_2'
p47
F27.656820910080416
sS'hadB_1b_ge4j_3'
p48
F17.142623907822653
sS'ttw_1b_ge4j_3'
p49
F11.067302591910117
sS'hadB_1b_ge4j_7'
p50
F1.209104673628667
sS'hadB_1b_ge4j_6'
p51
F2.4371972675259035
sS'ttw_1b_ge4j_6'
p52
F0.72306777003751632
sS'photExp_1b_ge4j_1'
p53
F80.150660484422133
sS'photExp_1b_ge4j_0'
p54
F99.224453202077967
sS'photExp_1b_ge4j_3'
p55
F11.880494940308241
sS'hadB_1b_ge4j_4'
p56
F6.8171822696959294
sS'photExp_1b_ge4j_5'
p57
F3.3255449147062044
sS'photExp_1b_ge4j_4'
p58
F7.5892907143053989
sS'photExp_1b_ge4j_7'
p59
F1.1241451380800571
sS'photExp_1b_ge4j_6'
p60
F3.7099700184639768
sS'muonB_1b_ge4j_4'
p61
F86.602680672229425
sS'muonB_1b_ge4j_5'
p62
F55.241269393178293
sS'muonB_1b_ge4j_6'
p63
F24.868267996093046
sS'muonB_1b_ge4j_7'
p64
F10.648896627390334
sS'muonB_1b_ge4j_0'
p65
F1242.0970334945812
sS'muonB_1b_ge4j_1'
p66
F888.49290344696601
sS'muonB_1b_ge4j_2'
p67
F384.44931444168787
sS'muonB_1b_ge4j_3'
p68
F199.96171849326282
sS'qcd_1b_ge4j_3'
p69
F0
sS'qcd_1b_ge4j_2'
p70
F0
sS'qcd_1b_ge4j_1'
p71
F0
sS'qcd_1b_ge4j_7'
p72
F0
sS'qcd_1b_ge4j_6'
p73
F0
sS'qcd_1b_ge4j_5'
p74
F0
sS'qcd_1b_ge4j_4'
p75
F0
sS'zInv_1b_ge4j_3'
p76
F6.0753213159125359
sS'zInv_1b_ge4j_2'
p77
F17.17291345580092
sS'zInv_1b_ge4j_1'
p78
F35.765139984309926
sS'zInv_1b_ge4j_0'
p79
F44.247249573069872
sS'zInv_1b_ge4j_7'
p80
F0.87130505726074048
sS'zInv_1b_ge4j_6'
p81
F1.7141294974883872
sS'zInv_1b_ge4j_5'
p82
F3.149328250074563
sS'zInv_1b_ge4j_4'
p83
F3.3637401393480295
sS'ttw_1b_ge4j_7'
p84
F0.33779961636792649
sS'photExp_1b_ge4j_2'
p85
F32.661331783802957
ssS'chi2Prob'
p86
F0.8002921131640115
sS'parBestFit'
p87
(dp88
g4
F1.0122679837665651
sg5
F1.030688045836337
sg6
F0.99633769170343256
sg7
F1.0021947977680981
sg8
F1.0019758798957585
sg9
F6.8171822696959294
sg10
F5.4260112920425492
sg11
F2.4371972675259035
sg12
F1.209104673628667
sg13
F190.67444996159284
sg14
F121.38859060178325
sg15
F44.829734365881336
sg16
F17.142623907822653
sg17
F1.0011025433316039
sg18
F0.99648288179039934
sg19
F1.0168430415583813
sg20
F0.99899874183912007
sg21
F0.99518071117051166
sg22
F1.0042780738283996
sg23
F1.029722154412724
sg24
F0.23205652137442906
sg25
F0.29463345613458769
sg26
F0.38306971251809929
sg27
F0.35439856515432266
sg28
F0.49342088949281743
sg29
F0.58041313970230246
sg30
F0.70331996524371154
sg31
F0.72062003916158091
sg32
F0.99104941529925283
sg33
F0.99513964144982303
sg34
F0.99117998680385933
sg35
F0.98859774864888927
ss.