(dp1
S'parError'
p2
(dp3
S'rhoMuonW_2b_ge4j_4'
p4
F0.12200264688313067
sS'rhoMuonW_2b_ge4j_5'
p5
F0.11936292733407972
sS'rhoMuonW_2b_ge4j_6'
p6
F0.12255462413482449
sS'rhoMuonW_2b_ge4j_7'
p7
F0.17721116704968415
sS'rhoMuonW_2b_ge4j_0'
p8
F0.028780343086487192
sS'rhoMuonW_2b_ge4j_1'
p9
F0.03767768644415892
sS'rhoMuonW_2b_ge4j_2'
p10
F0.054368450309514482
sS'rhoMuonW_2b_ge4j_3'
p11
F0.10871496421659965
sS'ewk_2b_ge4j_3'
p12
F1.0637937638365322
sS'ewk_2b_ge4j_2'
p13
F1.5289167344613546
sS'ewk_2b_ge4j_1'
p14
F2.5441791112286261
sS'ewk_2b_ge4j_0'
p15
F3.2387194134418067
sS'ewk_2b_ge4j_7'
p16
F0.14734636975300613
sS'ewk_2b_ge4j_6'
p17
F0.1398329229647069
sS'ewk_2b_ge4j_5'
p18
F0.22889702981487459
sS'ewk_2b_ge4j_4'
p19
F0.32865632511351672
ssS'lMax'
p20
F-32.96300388000423
sS'funcBestFit'
p21
(dp22
S'qcd_2b_ge4j_4'
p23
F0
sS'qcd_2b_ge4j_5'
p24
F0
sS'qcd_2b_ge4j_6'
p25
F0
sS'qcd_2b_ge4j_7'
p26
F0
sS'qcd_2b_ge4j_1'
p27
F0
sS'qcd_2b_ge4j_2'
p28
F0
sS'qcd_2b_ge4j_3'
p29
F0
sS'hadB_2b_ge4j_4'
p30
F1.8552642404277302
sS'hadB_2b_ge4j_5'
p31
F0.92653378832757594
sS'hadB_2b_ge4j_6'
p32
F0.43265765970530112
sS'hadB_2b_ge4j_7'
p33
F0.40873181775207268
sS'hadB_2b_ge4j_0'
p34
F74.590345570785757
sS'hadB_2b_ge4j_1'
p35
F46.611611686580218
sS'hadB_2b_ge4j_2'
p36
F19.614457847325678
sS'hadB_2b_ge4j_3'
p37
F7.6462772023683234
sS'muonB_2b_ge4j_3'
p38
F128.35002795450504
sS'muonB_2b_ge4j_2'
p39
F285.38163175573294
sS'muonB_2b_ge4j_1'
p40
F520.39381965917903
sS'muonB_2b_ge4j_0'
p41
F757.40789389477982
sS'muonB_2b_ge4j_7'
p42
F9.5894577677011643
sS'muonB_2b_ge4j_6'
p43
F10.565650571469279
sS'muonB_2b_ge4j_5'
p44
F20.070582723781406
sS'muonB_2b_ge4j_4'
p45
F54.142725916535063
ssS'chi2Prob'
p46
F0.075024052356037971
sS'parBestFit'
p47
(dp48
g4
F1.0127964055824399
sg5
F0.9842245115291588
sg6
F1.0069535136550809
sg7
F0.98080265262207922
sg8
F1.0022157108361782
sg9
F0.99183868002612674
sg10
F0.96196856170089329
sg11
F0.93714761531470347
sg12
F7.6462772023683234
sg13
F19.614457847325678
sg14
F46.611611686580218
sg15
F74.590345570785757
sg16
F0.40873181775207268
sg17
F0.43265765970530112
sg18
F0.92653378832757594
sg19
F1.8552642404277302
ss.