(dp1
S'parError'
p2
(dp3
S'rhoMuonW_0b_le3j_2'
p4
F0.067630328058309708
sS'rhoMuonW_0b_le3j_3'
p5
F0.11325405970504593
sS'rhoMuonW_0b_le3j_0'
p6
F0.058146650164047298
sS'rhoMuonW_0b_le3j_1'
p7
F0.058276335601125662
sS'rhoMuonW_0b_le3j_6'
p8
F0.1566298068857172
sS'rhoMuonW_0b_le3j_7'
p9
F0.15673442698959122
sS'rhoMuonW_0b_le3j_4'
p10
F0.11320288793573396
sS'rhoMuonW_0b_le3j_5'
p11
F0.1567023596509895
sS'fZinv_0b_le3j_1'
p12
F0.019635733954741497
sS'fZinv_0b_le3j_0'
p13
F0.019329040852769153
sS'fZinv_0b_le3j_3'
p14
F0.039614600697359892
sS'fZinv_0b_le3j_2'
p15
F0.023056111344787522
sS'fZinv_0b_le3j_5'
p16
F0.053814899794783766
sS'fZinv_0b_le3j_4'
p17
F0.046943733054494174
sS'fZinv_0b_le3j_7'
p18
F0.070794279349631228
sS'fZinv_0b_le3j_6'
p19
F0.080215896085405414
sS'ewk_0b_le3j_5'
p20
F2.7966046767707011
sS'ewk_0b_le3j_4'
p21
F4.5598079316523155
sS'ewk_0b_le3j_7'
p22
F0.95679869753942715
sS'ewk_0b_le3j_6'
p23
F1.37175816057472
sS'ewk_0b_le3j_1'
p24
F36.144970569591067
sS'ewk_0b_le3j_0'
p25
F119.24704086799466
sS'ewk_0b_le3j_3'
p26
F8.0832018893236679
sS'ewk_0b_le3j_2'
p27
F15.811803241270297
sS'rhoPhotZ_0b_le3j_3'
p28
F0.11322686727172376
sS'rhoPhotZ_0b_le3j_2'
p29
F0.067634857588474373
sS'rhoPhotZ_0b_le3j_1'
p30
F0.058250985220565099
sS'rhoPhotZ_0b_le3j_0'
p31
F0.058291542929271356
sS'rhoPhotZ_0b_le3j_7'
p32
F0.15669195351985971
sS'rhoPhotZ_0b_le3j_6'
p33
F0.15675438706447087
sS'rhoPhotZ_0b_le3j_5'
p34
F0.15676763754198031
sS'rhoPhotZ_0b_le3j_4'
p35
F0.11314125237100037
ssS'lMax'
p36
F-36.787345633753255
sS'funcBestFit'
p37
(dp38
S'photExp_0b_le3j_0'
p39
F4000.045669833693
sS'photExp_0b_le3j_1'
p40
F1205.9342499752186
sS'photExp_0b_le3j_2'
p41
F407.99697863884353
sS'photExp_0b_le3j_3'
p42
F126.97638686076016
sS'photExp_0b_le3j_4'
p43
F50.014393138607694
sS'photExp_0b_le3j_5'
p44
F21.991729183871385
sS'photExp_0b_le3j_6'
p45
F9.9858228547145753
sS'photExp_0b_le3j_7'
p46
F6.9986293704881382
sS'zInv_0b_le3j_2'
p47
F177.31984922388733
sS'zInv_0b_le3j_3'
p48
F52.770672071042632
sS'zInv_0b_le3j_0'
p49
F1741.4080516895965
sS'zInv_0b_le3j_1'
p50
F505.49258007326341
sS'zInv_0b_le3j_6'
p51
F3.8036611823508681
sS'zInv_0b_le3j_7'
p52
F2.3235752830853609
sS'zInv_0b_le3j_4'
p53
F24.047305308334007
sS'zInv_0b_le3j_5'
p54
F10.399135073922073
sS'muonB_0b_le3j_5'
p55
F159.00777089573597
sS'hadB_0b_le3j_2'
p56
F251.84081941321401
sS'muonB_0b_le3j_7'
p57
F54.004277735609136
sS'muonB_0b_le3j_6'
p58
F78.00338924085716
sS'muonB_0b_le3j_1'
p59
F3544.879374613352
sS'muonB_0b_le3j_0'
p60
F9078.0957555276018
sS'muonB_0b_le3j_3'
p61
F686.02498939788279
sS'ttw_0b_le3j_0'
p62
F950.57579402072508
sS'hadB_0b_le3j_0'
p63
F2691.9838457103215
sS'qcd_0b_le3j_2'
p64
F0
sS'qcd_0b_le3j_3'
p65
F0
sS'qcd_0b_le3j_1'
p66
F0
sS'qcd_0b_le3j_6'
p67
F0
sS'qcd_0b_le3j_7'
p68
F0
sS'qcd_0b_le3j_4'
p69
F0
sS'qcd_0b_le3j_5'
p70
F0
sS'hadB_0b_le3j_6'
p71
F5.260682599224241
sS'hadB_0b_le3j_7'
p72
F2.875139411420089
sS'ttw_0b_le3j_7'
p73
F0.55156412833472812
sS'muonB_0b_le3j_4'
p74
F325.99141991775639
sS'ttw_0b_le3j_6'
p75
F1.4570214168733728
sS'muonB_0b_le3j_2'
p76
F1538.0149238909255
sS'ttw_0b_le3j_1'
p77
F248.67685187851615
sS'hadB_0b_le3j_3'
p78
F75.914590452825678
sS'ttw_0b_le3j_3'
p79
F23.143918381783045
sS'hadB_0b_le3j_1'
p80
F754.16943195177953
sS'ttw_0b_le3j_5'
p81
F2.8771603026208901
sS'ttw_0b_le3j_4'
p82
F10.685095357990273
sS'hadB_0b_le3j_4'
p83
F34.732400666324281
sS'hadB_0b_le3j_5'
p84
F13.276295376542963
sS'ttw_0b_le3j_2'
p85
F74.520970189326675
ssS'chi2Prob'
p86
F0
sS'parBestFit'
p87
(dp88
g4
F0.99995526388406208
sg5
F1.0001800542023296
sg6
F0.99870906153105776
sg7
F1.0004819894620771
sg8
F0.99974228747085592
sg9
F1.0002055627602906
sg10
F0.99999176622017494
sg11
F1.0000239266042379
sg12
F0.6702639468760434
sg13
F0.64688651622651139
sg14
F0.6951321446413522
sg15
F0.70409495028264435
sg16
F0.78328590762567996
sg17
F0.69235943519590082
sg18
F0.80816090999138734
sg19
F0.72303567276835323
sg20
F13.276295376542963
sg21
F34.732400666324281
sg22
F2.875139411420089
sg23
F5.260682599224241
sg24
F754.16943195177953
sg25
F2691.9838457103215
sg26
F75.914590452825678
sg27
F251.84081941321401
sg28
F1.0001658299845186
sg29
F1.0000058533233072
sg30
F1.0001459835200452
sg31
F0.99980956239413665
sg32
F1.0000288546670615
sg33
F1.0004592908054049
sg34
F1.0004293303228358
sg35
F0.99950979742207713
ss.