(dp1
S'parError'
p2
(dp3
S'ewk_1b_ge2j_2'
p4
F4.7000933919066554
sS'ewk_1b_ge2j_3'
p5
F2.8307450480171763
sS'ewk_1b_ge2j_0'
p6
F14.241608672011068
sS'ewk_1b_ge2j_1'
p7
F8.2302014837034676
sS'ewk_1b_ge2j_6'
p8
F0.77262954971014675
sS'ewk_1b_ge2j_7'
p9
F0.43324134390916874
sS'ewk_1b_ge2j_4'
p10
F1.5530589103039594
sS'ewk_1b_ge2j_5'
p11
F1.3670582436582945
sS'fZinv_1b_ge2j_6'
p12
F0.10180263473407913
sS'fZinv_1b_ge2j_7'
p13
F0.18502393209599188
sS'rhoPhotZ_1b_ge2j_2'
p14
F0.057034682166103967
sS'fZinv_1b_ge2j_5'
p15
F0.0944989153317769
sS'rhoPhotZ_1b_ge2j_4'
p16
F0.11979674307828192
sS'rhoPhotZ_1b_ge2j_5'
p17
F0.14258679933285973
sS'rhoPhotZ_1b_ge2j_6'
p18
F0.14593383045892311
sS'rhoPhotZ_1b_ge2j_7'
p19
F0.14933215836930125
sS'rhoMuonW_1b_ge2j_5'
p20
F0.14591425327469915
sS'rhoMuonW_1b_ge2j_4'
p21
F0.11996888173803533
sS'rhoMuonW_1b_ge2j_7'
p22
F0.14902124001152195
sS'rhoMuonW_1b_ge2j_6'
p23
F0.14744745555189492
sS'rhoMuonW_1b_ge2j_1'
p24
F0.037130356365569439
sS'rhoMuonW_1b_ge2j_0'
p25
F0.027234281016187578
sS'rhoMuonW_1b_ge2j_3'
p26
F0.11519360580244459
sS'rhoMuonW_1b_ge2j_2'
p27
F0.056502626619718943
sS'rhoPhotZ_1b_ge2j_0'
p28
F0.028516749952039455
sS'rhoPhotZ_1b_ge2j_1'
p29
F0.038057359936325197
sS'fZinv_1b_ge2j_4'
p30
F0.080093611671411741
sS'rhoPhotZ_1b_ge2j_3'
p31
F0.11779487176805858
sS'fZinv_1b_ge2j_2'
p32
F0.034371021520546524
sS'fZinv_1b_ge2j_3'
p33
F0.063319126008131998
sS'fZinv_1b_ge2j_0'
p34
F0.014895766398168059
sS'fZinv_1b_ge2j_1'
p35
F0.021831070006184866
ssS'lMax'
p36
F-48.321027147359544
sS'funcBestFit'
p37
(dp38
S'ttw_1b_ge2j_6'
p39
F0.84524646265107961
sS'ttw_1b_ge2j_7'
p40
F0.49162307120411802
sS'hadB_1b_ge2j_7'
p41
F1.0712979954031365
sS'hadB_1b_ge2j_6'
p42
F2.690488024100671
sS'ttw_1b_ge2j_2'
p43
F43.806681683237329
sS'ttw_1b_ge2j_3'
p44
F15.56413131264892
sS'hadB_1b_ge2j_3'
p45
F27.383195198015585
sS'hadB_1b_ge2j_2'
p46
F80.697658996740017
sS'muonB_1b_ge2j_7'
p47
F18.501417042802331
sS'qcd_1b_ge2j_1'
p48
F0
sS'photExp_1b_ge2j_2'
p49
F82.153512824673214
sS'qcd_1b_ge2j_3'
p50
F0
sS'qcd_1b_ge2j_2'
p51
F0
sS'qcd_1b_ge2j_5'
p52
F0
sS'qcd_1b_ge2j_4'
p53
F0
sS'qcd_1b_ge2j_7'
p54
F0
sS'qcd_1b_ge2j_6'
p55
F0
sS'hadB_1b_ge2j_5'
p56
F6.4176804985393687
sS'hadB_1b_ge2j_4'
p57
F10.498574248210698
sS'ttw_1b_ge2j_4'
p58
F5.2069265029321654
sS'ttw_1b_ge2j_5'
p59
F2.4379743302525752
sS'hadB_1b_ge2j_1'
p60
F232.51713803731167
sS'hadB_1b_ge2j_0'
p61
F602.99990355495856
sS'ttw_1b_ge2j_0'
p62
F366.04237798804832
sS'ttw_1b_ge2j_1'
p63
F135.11133836362964
sS'zInv_1b_ge2j_5'
p64
F3.9797061682867936
sS'zInv_1b_ge2j_4'
p65
F5.2916477452785324
sS'zInv_1b_ge2j_7'
p66
F0.57967492419901845
sS'zInv_1b_ge2j_6'
p67
F1.8452415614495914
sS'zInv_1b_ge2j_1'
p68
F97.405799673682026
sS'zInv_1b_ge2j_0'
p69
F236.95752556691025
sS'zInv_1b_ge2j_3'
p70
F11.819063885366667
sS'zInv_1b_ge2j_2'
p71
F36.890977313502688
sS'photExp_1b_ge2j_3'
p72
F28.716688565675661
sS'photExp_1b_ge2j_1'
p73
F227.4577619914069
sS'photExp_1b_ge2j_0'
p74
F555.03032455202049
sS'photExp_1b_ge2j_7'
p75
F1.4261146666500342
sS'photExp_1b_ge2j_6'
p76
F5.2030605589531964
sS'muonB_1b_ge2j_2'
p77
F710.19937139863123
sS'muonB_1b_ge2j_3'
p78
F339.97748850893146
sS'muonB_1b_ge2j_0'
p79
F3530.158914065717
sS'muonB_1b_ge2j_1'
p80
F1676.8898160944048
sS'muonB_1b_ge2j_6'
p81
F41.088873888517682
sS'photExp_1b_ge2j_5'
p82
F7.9696317039029037
sS'muonB_1b_ge2j_4'
p83
F149.25399730839277
sS'muonB_1b_ge2j_5'
p84
F80.605549926702295
sS'photExp_1b_ge2j_4'
p85
F13.266846222820371
ssS'chi2Prob'
p86
F0.62089102532815588
sS'parBestFit'
p87
(dp88
g4
F80.697658996740017
sg5
F27.383195198015585
sg6
F602.99990355495856
sg7
F232.51713803731167
sg8
F2.690488024100671
sg9
F1.0712979954031365
sg10
F10.498574248210698
sg11
F6.4176804985393687
sg12
F0.68583897973914465
sg13
F0.54109587312434293
sg14
F0.99984183803082927
sg15
F0.62011597012231356
sg16
F0.99603189242885171
sg17
F0.97895943620657433
sg18
F0.99546842014136216
sg19
F1.0126186418420144
sg20
F0.98659906171060863
sg21
F0.99634053066705641
sg22
F1.011156070059847
sg23
F0.99707498098503
sg24
F0.98624211396416561
sg25
F0.98251633389454263
sg26
F0.98633793466771036
sg27
F0.9994367746464502
sg28
F0.98865396068067368
sg29
F0.99021590895480538
sg30
F0.50403489275511892
sg31
F0.98931680120714516
sg32
F0.45715052669610889
sg33
F0.43161741352313682
sg34
F0.39296445019300652
sg35
F0.41891879667833976
ss.