(dp1
S'parError'
p2
(dp3
S'rhoMuonW_0b_le3j_2'
p4
F0.048779749470457323
sS'rhoMuonW_0b_le3j_3'
p5
F0.10427539063310204
sS'rhoMuonW_0b_le3j_0'
p6
F0.02955416922700338
sS'rhoMuonW_0b_le3j_1'
p7
F0.03922490257998501
sS'rhoMuonW_0b_le3j_6'
p8
F0.14812866167580163
sS'rhoMuonW_0b_le3j_7'
p9
F0.14832574273373683
sS'rhoMuonW_0b_le3j_4'
p10
F0.10436206961441763
sS'rhoMuonW_0b_le3j_5'
p11
F0.14811141965286678
sS'fZinv_0b_le3j_1'
p12
F0.014302221048921759
sS'fZinv_0b_le3j_0'
p13
F0.010479929611579175
sS'fZinv_0b_le3j_3'
p14
F0.037286178646321444
sS'fZinv_0b_le3j_2'
p15
F0.018468525707332539
sS'fZinv_0b_le3j_5'
p16
F0.052361487503486959
sS'fZinv_0b_le3j_4'
p17
F0.045024874375422075
sS'fZinv_0b_le3j_7'
p18
F0.069832192726573872
sS'fZinv_0b_le3j_6'
p19
F0.078785616562551786
sS'ewk_0b_le3j_5'
p20
F2.7433541935751444
sS'ewk_0b_le3j_4'
p21
F4.4054053521878256
sS'ewk_0b_le3j_7'
p22
F0.94801199430344485
sS'ewk_0b_le3j_6'
p23
F1.3589515252229276
sS'ewk_0b_le3j_1'
p24
F26.782413890564271
sS'ewk_0b_le3j_0'
p25
F65.521572622663143
sS'ewk_0b_le3j_3'
p26
F7.6880906970640623
sS'ewk_0b_le3j_2'
p27
F12.989486220964451
sS'rhoPhotZ_0b_le3j_3'
p28
F0.10408418077018294
sS'rhoPhotZ_0b_le3j_2'
p29
F0.048781892499336843
sS'rhoPhotZ_0b_le3j_1'
p30
F0.039229895002936721
sS'rhoPhotZ_0b_le3j_0'
p31
F0.029542976807244881
sS'rhoPhotZ_0b_le3j_7'
p32
F0.14815091440321537
sS'rhoPhotZ_0b_le3j_6'
p33
F0.14812713128816857
sS'rhoPhotZ_0b_le3j_5'
p34
F0.14811732718149878
sS'rhoPhotZ_0b_le3j_4'
p35
F0.10428039863478522
ssS'lMax'
p36
F-33.317226259237785
sS'funcBestFit'
p37
(dp38
S'photExp_0b_le3j_0'
p39
F4000.0076786486206
sS'photExp_0b_le3j_1'
p40
F1205.865486044866
sS'photExp_0b_le3j_2'
p41
F407.99676671307634
sS'photExp_0b_le3j_3'
p42
F127.09455434137723
sS'photExp_0b_le3j_4'
p43
F50.00654417386437
sS'photExp_0b_le3j_5'
p44
F22.000442873133021
sS'photExp_0b_le3j_6'
p45
F10.008207636756744
sS'photExp_0b_le3j_7'
p46
F6.9971549906740806
sS'zInv_0b_le3j_2'
p47
F177.31738693007097
sS'zInv_0b_le3j_3'
p48
F52.9113121562157
sS'zInv_0b_le3j_0'
p49
F1741.5758824463012
sS'zInv_0b_le3j_1'
p50
F505.36797126848182
sS'zInv_0b_le3j_6'
p51
F3.8146338297735238
sS'zInv_0b_le3j_7'
p52
F2.3229355768995874
sS'zInv_0b_le3j_4'
p53
F24.02842203852418
sS'zInv_0b_le3j_5'
p54
F10.409076433273791
sS'muonB_0b_le3j_5'
p55
F158.9946960988797
sS'hadB_0b_le3j_2'
p56
F251.83587566041632
sS'muonB_0b_le3j_7'
p57
F53.99085108905502
sS'muonB_0b_le3j_6'
p58
F77.999676162346177
sS'muonB_0b_le3j_1'
p59
F3544.9801233197145
sS'muonB_0b_le3j_0'
p60
F9077.8017696737224
sS'muonB_0b_le3j_3'
p61
F685.93547136509221
sS'ttw_0b_le3j_0'
p62
F949.22226840483313
sS'hadB_0b_le3j_0'
p63
F2690.7981508511343
sS'qcd_0b_le3j_2'
p64
F0
sS'qcd_0b_le3j_3'
p65
F0
sS'qcd_0b_le3j_1'
p66
F0
sS'qcd_0b_le3j_6'
p67
F0
sS'qcd_0b_le3j_7'
p68
F0
sS'qcd_0b_le3j_4'
p69
F0
sS'qcd_0b_le3j_5'
p70
F0
sS'hadB_0b_le3j_6'
p71
F5.2713660444140285
sS'hadB_0b_le3j_7'
p72
F2.8739429174148823
sS'ttw_0b_le3j_7'
p73
F0.55100734051529476
sS'muonB_0b_le3j_4'
p74
F325.96997790954032
sS'ttw_0b_le3j_6'
p75
F1.4567322146405044
sS'muonB_0b_le3j_2'
p76
F1538.0064342847784
sS'ttw_0b_le3j_1'
p77
F248.7502128924223
sS'hadB_0b_le3j_3'
p78
F76.050307142875013
sS'ttw_0b_le3j_3'
p79
F23.138994986659316
sS'hadB_0b_le3j_1'
p80
F754.11818416090409
sS'ttw_0b_le3j_5'
p81
F2.877370337338089
sS'ttw_0b_le3j_4'
p82
F10.675790811066639
sS'hadB_0b_le3j_4'
p83
F34.704212849590817
sS'hadB_0b_le3j_5'
p84
F13.28644677061188
sS'ttw_0b_le3j_2'
p85
F74.518488730345354
ssS'chi2Prob'
p86
F0
sS'parBestFit'
p87
(dp88
g4
F0.99998304252126158
sg5
F1.0002623280470913
sg6
F1.0001007635073391
sg7
F1.000215355143198
sg8
F0.99989316569358966
sg9
F1.0009673369302492
sg10
F1.0007974832524573
sg11
F0.99986870611295708
sg12
F0.67014425839737191
sg13
F0.64723393759409942
sg14
F0.6957409397020804
sg15
F0.70409899489130567
sg16
F0.78343567794946445
sg17
F0.69237767018846208
sg18
F0.808274779162654
sg19
F0.72365185753241756
sg20
F13.28644677061188
sg21
F34.704212849590817
sg22
F2.8739429174148823
sg23
F5.2713660444140285
sg24
F754.11818416090409
sg25
F2690.7981508511343
sg26
F76.050307142875013
sg27
F251.83587566041632
sg28
F0.99843566076876322
sg29
F1.0000192203288023
sg30
F1.0003355462796093
sg31
F0.99970371860196083
sg32
F1.0000935185489048
sg33
F0.99981774295899484
sg34
F0.99986987113663661
sg35
F1.0001383039641862
ss.