(dp1
S'parError'
p2
(dp3
S'rhoMuonW_2b_ge4j_4'
p4
F0.13068520686262786
sS'rhoMuonW_2b_ge4j_5'
p5
F0.12755992683887096
sS'rhoMuonW_2b_ge4j_6'
p6
F0.13151541241846099
sS'rhoMuonW_2b_ge4j_7'
p7
F0.18484738859834593
sS'rhoMuonW_2b_ge4j_0'
p8
F0.052932155202179032
sS'rhoMuonW_2b_ge4j_1'
p9
F0.053492290035008994
sS'rhoMuonW_2b_ge4j_2'
p10
F0.068398930288510518
sS'rhoMuonW_2b_ge4j_3'
p11
F0.11472976302564331
sS'ewk_2b_ge4j_3'
p12
F1.1147650900281825
sS'ewk_2b_ge4j_2'
p13
F1.7893510759550413
sS'ewk_2b_ge4j_1'
p14
F3.0651637397294813
sS'ewk_2b_ge4j_0'
p15
F4.3869266110381773
sS'ewk_2b_ge4j_7'
p16
F0.149125724075167
sS'ewk_2b_ge4j_6'
p17
F0.14099380282981328
sS'ewk_2b_ge4j_5'
p18
F0.23304116165798749
sS'ewk_2b_ge4j_4'
p19
F0.33822641102043915
ssS'lMax'
p20
F-34.425794160113227
sS'funcBestFit'
p21
(dp22
S'qcd_2b_ge4j_4'
p23
F0
sS'qcd_2b_ge4j_5'
p24
F0
sS'qcd_2b_ge4j_6'
p25
F0
sS'qcd_2b_ge4j_7'
p26
F0
sS'qcd_2b_ge4j_1'
p27
F0
sS'qcd_2b_ge4j_2'
p28
F0
sS'qcd_2b_ge4j_3'
p29
F0
sS'hadB_2b_ge4j_4'
p30
F1.8524459083161338
sS'hadB_2b_ge4j_5'
p31
F0.92838899308601563
sS'hadB_2b_ge4j_6'
p32
F0.43206322996509172
sS'hadB_2b_ge4j_7'
p33
F0.40934104471367749
sS'hadB_2b_ge4j_0'
p34
F74.235079515643108
sS'hadB_2b_ge4j_1'
p35
F46.992041079673513
sS'hadB_2b_ge4j_2'
p36
F20.09653390745714
sS'hadB_2b_ge4j_3'
p37
F7.7052464204473647
sS'muonB_2b_ge4j_3'
p38
F128.28770962822352
sS'muonB_2b_ge4j_2'
p39
F284.8949390034345
sS'muonB_2b_ge4j_1'
p40
F520.02151056644925
sS'muonB_2b_ge4j_0'
p41
F757.78384544153221
sS'muonB_2b_ge4j_7'
p42
F9.5887470696288784
sS'muonB_2b_ge4j_6'
p43
F10.56620166104217
sS'muonB_2b_ge4j_5'
p44
F20.068265283390669
sS'muonB_2b_ge4j_4'
p45
F54.139357587789334
ssS'chi2Prob'
p46
F0.091996025520104746
sS'parBestFit'
p47
(dp48
g4
F1.0142741814853529
sg5
F0.98214431442481387
sg6
F1.0083914672003027
sg7
F0.97927033132059482
sg8
F1.0075118507842129
sg9
F0.9831052839633615
sg10
F0.93729164301945211
sg11
F0.92952397207622073
sg12
F7.7052464204473647
sg13
F20.09653390745714
sg14
F46.992041079673513
sg15
F74.235079515643108
sg16
F0.40934104471367749
sg17
F0.43206322996509172
sg18
F0.92838899308601563
sg19
F1.8524459083161338
ss.