(dp1
S'parError'
p2
(dp3
S'rhoPhotZ_0b_ge4j_4'
p4
F0.13087674520278952
sS'ewk_0b_ge4j_1'
p5
F16.158830303641679
sS'ewk_0b_ge4j_0'
p6
F22.46950046139176
sS'ewk_0b_ge4j_3'
p7
F7.9212502262972819
sS'ewk_0b_ge4j_2'
p8
F10.314451377812397
sS'ewk_0b_ge4j_5'
p9
F2.5346621559167115
sS'ewk_0b_ge4j_4'
p10
F4.2658198091371382
sS'ewk_0b_ge4j_7'
p11
F1.3021629171221738
sS'rhoPhotZ_0b_ge4j_2'
p12
F0.07692371566323003
sS'fZinv_0b_ge4j_3'
p13
F0.051625622594507481
sS'fZinv_0b_ge4j_2'
p14
F0.034043097447166215
sS'fZinv_0b_ge4j_5'
p15
F0.061903719453445472
sS'fZinv_0b_ge4j_4'
p16
F0.056017501060996677
sS'rhoPhotZ_0b_ge4j_5'
p17
F0.13085364607876337
sS'fZinv_0b_ge4j_6'
p18
F0.079677730234659183
sS'rhoPhotZ_0b_ge4j_3'
p19
F0.13093583277206189
sS'fZinv_0b_ge4j_0'
p20
F0.024883031949886059
sS'rhoPhotZ_0b_ge4j_1'
p21
F0.058258893108197707
sS'rhoPhotZ_0b_ge4j_0'
p22
F0.058240804212187525
sS'rhoMuonW_0b_ge4j_6'
p23
F0.13075240949444839
sS'rhoMuonW_0b_ge4j_7'
p24
F0.19001954054108816
sS'rhoMuonW_0b_ge4j_4'
p25
F0.13088700530082092
sS'rhoMuonW_0b_ge4j_5'
p26
F0.13088828710275541
sS'rhoMuonW_0b_ge4j_2'
p27
F0.07692531652072887
sS'rhoMuonW_0b_ge4j_3'
p28
F0.1307194917686309
sS'rhoMuonW_0b_ge4j_0'
p29
F0.058255594554649459
sS'rhoMuonW_0b_ge4j_1'
p30
F0.058244020820033882
sS'ewk_0b_ge4j_6'
p31
F1.9233052256618217
sS'fZinv_0b_ge4j_1'
p32
F0.024896869947153011
sS'rhoPhotZ_0b_ge4j_7'
p33
F0.18999736500949022
sS'rhoPhotZ_0b_ge4j_6'
p34
F0.13081838146492453
sS'fZinv_0b_ge4j_7'
p35
F0.11296648978769103
ssS'lMax'
p36
F-30.494630810035694
sS'funcBestFit'
p37
(dp38
S'ttw_0b_ge4j_5'
p39
F3.7756863105948764
sS'ttw_0b_ge4j_4'
p40
F7.9367320373165473
sS'hadB_0b_ge4j_4'
p41
F26.532553597559414
sS'hadB_0b_ge4j_5'
p42
F13.410268778658185
sS'hadB_0b_ge4j_2'
p43
F137.01797608352922
sS'hadB_0b_ge4j_3'
p44
F65.886859432990107
sS'hadB_0b_ge4j_0'
p45
F448.54539528484872
sS'hadB_0b_ge4j_1'
p46
F294.86979564288924
sS'photExp_0b_ge4j_4'
p47
F31.990788082507301
sS'photExp_0b_ge4j_5'
p48
F21.005487541604733
sS'photExp_0b_ge4j_6'
p49
F8.0084742210315287
sS'photExp_0b_ge4j_7'
p50
F5.0056882101421287
sS'photExp_0b_ge4j_0'
p51
F427.02113131047537
sS'photExp_0b_ge4j_1'
p52
F343.98660520442917
sS'photExp_0b_ge4j_2'
p53
F155.00213051575381
sS'photExp_0b_ge4j_3'
p54
F82.982560652409873
sS'ttw_0b_ge4j_3'
p55
F24.1605024437015
sS'muonB_0b_ge4j_1'
p56
F887.96924051166718
sS'muonB_0b_ge4j_0'
p57
F1249.0203966927829
sS'muonB_0b_ge4j_3'
p58
F307.98708631527131
sS'muonB_0b_ge4j_2'
p59
F561.99901076377103
sS'muonB_0b_ge4j_5'
p60
F80.986573953113947
sS'muonB_0b_ge4j_4'
p61
F161.99540755156045
sS'muonB_0b_ge4j_7'
p62
F29.000630946349528
sS'muonB_0b_ge4j_6'
p63
F47.006879305865588
sS'hadB_0b_ge4j_6'
p64
F6.7282434226313441
sS'hadB_0b_ge4j_7'
p65
F3.7007328879850263
sS'ttw_0b_ge4j_7'
p66
F1.0742271367488356
sS'ttw_0b_ge4j_6'
p67
F1.6958735971086434
sS'ttw_0b_ge4j_1'
p68
F117.11904153209781
sS'ttw_0b_ge4j_0'
p69
F217.34444318908828
sS'qcd_0b_ge4j_6'
p70
F0
sS'qcd_0b_ge4j_7'
p71
F0
sS'qcd_0b_ge4j_4'
p72
F0
sS'qcd_0b_ge4j_5'
p73
F0
sS'qcd_0b_ge4j_2'
p74
F0
sS'qcd_0b_ge4j_3'
p75
F0
sS'qcd_0b_ge4j_1'
p76
F0
sS'ttw_0b_ge4j_2'
p77
F55.119661889445197
sS'zInv_0b_ge4j_6'
p78
F5.032369825522701
sS'zInv_0b_ge4j_7'
p79
F2.6265057512361909
sS'zInv_0b_ge4j_4'
p80
F18.595821560242868
sS'zInv_0b_ge4j_5'
p81
F9.634582468063309
sS'zInv_0b_ge4j_2'
p82
F81.898314194084023
sS'zInv_0b_ge4j_3'
p83
F41.726356989288611
sS'zInv_0b_ge4j_0'
p84
F231.20095209576044
sS'zInv_0b_ge4j_1'
p85
F177.75075411079143
ssS'chi2Prob'
p86
F0
sS'parBestFit'
p87
(dp88
g4
F1.0002748741353356
sg5
F294.86979564288924
sg6
F448.54539528484872
sg7
F65.886859432990107
sg8
F137.01797608352922
sg9
F13.410268778658185
sg10
F26.532553597559414
sg11
F3.7007328879850263
sg12
F0.99999262153813928
sg13
F0.6333031707441783
sg14
F0.59771948568381261
sg15
F0.71844812561820504
sg16
F0.70086814267109954
sg17
F1.0000775536117734
sg18
F0.74794705087447544
sg19
F1.0006808464281796
sg20
F0.51544604966669272
sg21
F1.0001103839493743
sg22
F0.99981350987015338
sg23
F0.99944831865353778
sg24
F0.99987926734765042
sg25
F1.0002938846131502
sg26
F1.000351241929901
sg27
F1.0000145661146376
sg28
F0.99942472461150134
sg29
F0.99998530822451337
sg30
F0.99993237346134278
sg31
F6.7282434226313441
sg32
F0.60281099230001067
sg33
F0.99972040906481907
sg34
F0.99977832204059924
sg35
F0.70972583829638936
ss.