(dp1
S'parError'
p2
(dp3
S'rhoPhotZ_0b_ge4j_4'
p4
F0.12052011294328635
sS'ewk_0b_ge4j_1'
p5
F11.875396823600255
sS'ewk_0b_ge4j_0'
p6
F15.694954766045527
sS'ewk_0b_ge4j_3'
p7
F5.6734376187047566
sS'ewk_0b_ge4j_2'
p8
F8.1696307749040358
sS'ewk_0b_ge4j_5'
p9
F2.1555443909489576
sS'ewk_0b_ge4j_4'
p10
F3.3484774675185527
sS'ewk_0b_ge4j_7'
p11
F0.95047652333878996
sS'rhoPhotZ_0b_ge4j_2'
p12
F0.0673817916418612
sS'fZinv_0b_ge4j_3'
p13
F0.04947583928068211
sS'fZinv_0b_ge4j_2'
p14
F0.032948830778448734
sS'fZinv_0b_ge4j_5'
p15
F0.05620997705592784
sS'fZinv_0b_ge4j_4'
p16
F0.050905581796390931
sS'rhoPhotZ_0b_ge4j_5'
p17
F0.12366592842146668
sS'fZinv_0b_ge4j_6'
p18
F0.07258273424202738
sS'rhoPhotZ_0b_ge4j_3'
p19
F0.11472588676504009
sS'fZinv_0b_ge4j_0'
p20
F0.024903959857654728
sS'rhoPhotZ_0b_ge4j_1'
p21
F0.051912355818807099
sS'rhoPhotZ_0b_ge4j_0'
p22
F0.051599313378675071
sS'rhoMuonW_0b_ge4j_6'
p23
F0.1305759003217703
sS'rhoMuonW_0b_ge4j_7'
p24
F0.19095930912138898
sS'rhoMuonW_0b_ge4j_4'
p25
F0.1289233279430303
sS'rhoMuonW_0b_ge4j_5'
p26
F0.12958185144623563
sS'rhoMuonW_0b_ge4j_2'
p27
F0.072994549790167285
sS'rhoMuonW_0b_ge4j_3'
p28
F0.1253182509842628
sS'rhoMuonW_0b_ge4j_0'
p29
F0.052549787057498965
sS'rhoMuonW_0b_ge4j_1'
p30
F0.055626214295028231
sS'ewk_0b_ge4j_6'
p31
F1.499860999855763
sS'fZinv_0b_ge4j_1'
p32
F0.024196567840033212
sS'rhoPhotZ_0b_ge4j_7'
p33
F0.19144320760360689
sS'rhoPhotZ_0b_ge4j_6'
p34
F0.12891031397444841
sS'fZinv_0b_ge4j_7'
p35
F0.11278690474765385
ssS'lMax'
p36
F-54.299759756246729
sS'funcBestFit'
p37
(dp38
S'ttw_0b_ge4j_5'
p39
F3.812184810899784
sS'ttw_0b_ge4j_4'
p40
F7.9900530750897492
sS'hadB_0b_ge4j_4'
p41
F27.135055932095383
sS'hadB_0b_ge4j_5'
p42
F13.952149961261567
sS'hadB_0b_ge4j_2'
p43
F146.38594959864136
sS'hadB_0b_ge4j_3'
p44
F65.958195337443271
sS'hadB_0b_ge4j_0'
p45
F459.95135036044098
sS'hadB_0b_ge4j_1'
p46
F298.24588232825727
sS'photExp_0b_ge4j_4'
p47
F32.597202139113186
sS'photExp_0b_ge4j_5'
p48
F21.80703667642312
sS'photExp_0b_ge4j_6'
p49
F7.6596252431571346
sS'photExp_0b_ge4j_7'
p50
F4.2006295001702458
sS'photExp_0b_ge4j_0'
p51
F432.17354671970355
sS'photExp_0b_ge4j_1'
p52
F346.32315824279675
sS'photExp_0b_ge4j_2'
p53
F162.07957492751356
sS'photExp_0b_ge4j_3'
p54
F83.011776200465732
sS'ttw_0b_ge4j_3'
p55
F24.199712916515857
sS'muonB_0b_ge4j_1'
p56
F889.4140493635565
sS'muonB_0b_ge4j_0'
p57
F1253.818689715657
sS'muonB_0b_ge4j_3'
p58
F308.01648510621101
sS'muonB_0b_ge4j_2'
p59
F566.52538568441378
sS'muonB_0b_ge4j_5'
p60
F81.281384052547864
sS'muonB_0b_ge4j_4'
p61
F162.26375039918403
sS'muonB_0b_ge4j_7'
p62
F28.606437072781823
sS'muonB_0b_ge4j_6'
p63
F46.883490404036628
sS'hadB_0b_ge4j_6'
p64
F6.4729696131932553
sS'hadB_0b_ge4j_7'
p65
F3.1848468344976832
sS'ttw_0b_ge4j_7'
p66
F1.0440297275777959
sS'ttw_0b_ge4j_6'
p67
F1.6879195340620972
sS'ttw_0b_ge4j_1'
p68
F117.85857499877895
sS'ttw_0b_ge4j_0'
p69
F221.86117133330796
sS'qcd_0b_ge4j_6'
p70
F0
sS'qcd_0b_ge4j_7'
p71
F0
sS'qcd_0b_ge4j_4'
p72
F0
sS'qcd_0b_ge4j_5'
p73
F0
sS'qcd_0b_ge4j_2'
p74
F0
sS'qcd_0b_ge4j_3'
p75
F0
sS'qcd_0b_ge4j_1'
p76
F0
sS'ttw_0b_ge4j_2'
p77
F57.079507490349236
sS'zInv_0b_ge4j_6'
p78
F4.7850500791311585
sS'zInv_0b_ge4j_7'
p79
F2.1408171069198874
sS'zInv_0b_ge4j_4'
p80
F19.145002857005636
sS'zInv_0b_ge4j_5'
p81
F10.139965150361784
sS'zInv_0b_ge4j_2'
p82
F89.306442108292117
sS'zInv_0b_ge4j_3'
p83
F41.758482420927415
sS'zInv_0b_ge4j_0'
p84
F238.09017902713302
sS'zInv_0b_ge4j_1'
p85
F180.38730732947832
ssS'chi2Prob'
p86
F0.93138869444574135
sS'parBestFit'
p87
(dp88
g4
F0.98999882986354981
sg5
F298.24588232825727
sg6
F459.95135036044098
sg7
F65.958195337443271
sg8
F146.38594959864136
sg9
F13.952149961261567
sg10
F27.135055932095383
sg11
F3.1848468344976832
sg12
F0.95891385018211317
sg13
F0.63310529051454933
sg14
F0.61007523162674482
sg15
F0.72676721354885132
sg16
F0.70554499334423326
sg17
F0.98649299071103369
sg18
F0.73923567776036414
sg19
F1.0002630447268219
sg20
F0.51764209158328067
sg21
F0.99218673019283488
sg22
F0.98259816984652992
sg23
F1.0015222400958983
sg24
F1.0148156143219986
sg25
F0.9952644095928912
sg26
F0.9943803588145087
sg27
F0.97345633935588527
sg28
F0.99790061516404205
sg29
F0.98339063405817617
sg30
F0.99527481903752879
sg31
F6.4729696131932553
sg32
F0.60482748637226547
sg33
F1.0292667200983332
sg34
F1.0056515281793947
sg35
F0.67218840282394265
ss.