(dp1
S'parError'
p2
(dp3
S'rhoMuonW_1b_le3j_7'
p4
F0.15663398995197431
sS'rhoMuonW_1b_le3j_6'
p5
F0.15683763611091101
sS'rhoMuonW_1b_le3j_5'
p6
F0.15668672858910571
sS'rhoMuonW_1b_le3j_4'
p7
F0.11315830960439299
sS'rhoMuonW_1b_le3j_3'
p8
F0.11331313730969572
sS'rhoMuonW_1b_le3j_2'
p9
F0.067626799526457559
sS'rhoMuonW_1b_le3j_1'
p10
F0.058254488006655059
sS'rhoMuonW_1b_le3j_0'
p11
F0.058301353017939928
sS'fZinv_1b_le3j_4'
p12
F0.11115317809757747
sS'fZinv_1b_le3j_5'
p13
F0.091770425131235567
sS'fZinv_1b_le3j_6'
p14
F0.18674047086203477
sS'fZinv_1b_le3j_7'
p15
F0.87138176987261906
sS'fZinv_1b_le3j_0'
p16
F0.024219056908389214
sS'fZinv_1b_le3j_1'
p17
F0.030369683215893006
sS'fZinv_1b_le3j_2'
p18
F0.044286073863851416
sS'fZinv_1b_le3j_3'
p19
F0.075959660555310227
sS'ewk_1b_le3j_0'
p20
F18.678486051146734
sS'ewk_1b_le3j_1'
p21
F6.8863662974369646
sS'ewk_1b_le3j_2'
p22
F3.4441969742441998
sS'ewk_1b_le3j_3'
p23
F1.5265935773371253
sS'ewk_1b_le3j_4'
p24
F0.95572206501866463
sS'ewk_1b_le3j_5'
p25
F0.64110667128269638
sS'ewk_1b_le3j_6'
p26
F0.27944814808697288
sS'ewk_1b_le3j_7'
p27
F0.047732941063313994
sS'rhoPhotZ_1b_le3j_6'
p28
F0.15673674669615451
sS'rhoPhotZ_1b_le3j_7'
p29
F0.15666808706046781
sS'rhoPhotZ_1b_le3j_4'
p30
F0.11320548161432181
sS'rhoPhotZ_1b_le3j_5'
p31
F0.15677614239142557
sS'rhoPhotZ_1b_le3j_2'
p32
F0.067630717450269606
sS'rhoPhotZ_1b_le3j_3'
p33
F0.11319919749053553
sS'rhoPhotZ_1b_le3j_0'
p34
F0.058244160151021185
sS'rhoPhotZ_1b_le3j_1'
p35
F0.058255787732129694
ssS'lMax'
p36
F-21.135347537644677
sS'funcBestFit'
p37
(dp38
S'ttw_1b_le3j_4'
p39
F1.6508872072675651
sS'ttw_1b_le3j_5'
p40
F0.30016616873842283
sS'hadB_1b_le3j_5'
p41
F1.5159848367358786
sS'hadB_1b_le3j_4'
p42
F3.8100957073255479
sS'ttw_1b_le3j_0'
p43
F207.52188298864334
sS'ttw_1b_le3j_1'
p44
F49.447247755992123
sS'ttw_1b_le3j_2'
p45
F15.298588207554925
sS'hadB_1b_le3j_0'
p46
F387.8248079816882
sS'ttw_1b_le3j_6'
p47
F0.086274105690415048
sS'muonB_1b_le3j_0'
p48
F2272.0070373684462
sS'muonB_1b_le3j_1'
p49
F787.03045552069261
sS'muonB_1b_le3j_2'
p50
F325.0053733569593
sS'ttw_1b_le3j_7'
p51
F0.1233694668071096
sS'muonB_1b_le3j_4'
p52
F63.008656627769867
sS'muonB_1b_le3j_5'
p53
F25.002345232765283
sS'muonB_1b_le3j_6'
p54
F16.007694288934211
sS'muonB_1b_le3j_7'
p55
F7.9931136990894247
sS'hadB_1b_le3j_3'
p56
F8.6432865239622068
sS'hadB_1b_le3j_2'
p57
F35.376191615733333
sS'hadB_1b_le3j_1'
p58
F108.45979706688499
sS'hadB_1b_le3j_6'
p59
F0.36031723279756289
sS'ttw_1b_le3j_3'
p60
F3.5279323652124894
sS'qcd_1b_le3j_7'
p61
F0
sS'qcd_1b_le3j_6'
p62
F0
sS'qcd_1b_le3j_5'
p63
F0
sS'qcd_1b_le3j_4'
p64
F0
sS'qcd_1b_le3j_3'
p65
F0
sS'qcd_1b_le3j_2'
p66
F0
sS'qcd_1b_le3j_1'
p67
F0
sS'photExp_1b_le3j_5'
p68
F3.9779454009195958
sS'photExp_1b_le3j_4'
p69
F5.9989454839158896
sS'photExp_1b_le3j_7'
p70
F5.1326581840240955e-06
sS'photExp_1b_le3j_6'
p71
F0.98598299598720773
sS'photExp_1b_le3j_1'
p72
F143.96516497564019
sS'photExp_1b_le3j_0'
p73
F444.02440122242064
sS'photExp_1b_le3j_3'
p74
F15.009205883703688
sS'photExp_1b_le3j_2'
p75
F48.995267510596072
sS'zInv_1b_le3j_7'
p76
F1.396170032800451e-06
sS'zInv_1b_le3j_6'
p77
F0.27404312710714784
sS'zInv_1b_le3j_5'
p78
F1.2158186679974556
sS'zInv_1b_le3j_4'
p79
F2.159208500057983
sS'zInv_1b_le3j_3'
p80
F5.1153541587497173
sS'zInv_1b_le3j_2'
p81
F20.077603408178408
sS'zInv_1b_le3j_1'
p82
F59.012549310892865
sS'zInv_1b_le3j_0'
p83
F180.30292499304488
sS'hadB_1b_le3j_7'
p84
F0.12337086297714239
sS'muonB_1b_le3j_3'
p85
F137.00395886503071
ssS'chi2Prob'
p86
F0
sS'parBestFit'
p87
(dp88
g4
F0.99980792997661616
sg5
F1.0006704426091062
sg6
F1.0000337913500066
sg7
F0.99961407554238768
sg8
F1.0006067778069787
sg9
F0.99990392809448514
sg10
F0.99996560512899113
sg11
F1.0005118338528622
sg12
F0.56670715538891647
sg13
F0.80199922752214237
sg14
F0.7605607008563855
sg15
F1.1316853907872293e-05
sg16
F0.46490817833798342
sg17
F0.54409606975846547
sg18
F0.56754564273812402
sg19
F0.59182975648998448
sg20
F387.8248079816882
sg21
F108.45979706688499
sg22
F35.376191615733333
sg23
F8.6432865239622068
sg24
F3.8100957073255479
sg25
F1.5159848367358786
sg26
F0.36031723279756289
sg27
F0.12337086297714239
sg28
F1.0003465541529146
sg29
F0.99993768184114185
sg30
F0.99995931182734632
sg31
F1.0006468571216214
sg32
F0.99996699615852713
sg33
F0.99986265492282977
sg34
F0.99981946066250482
sg35
F1.0000546618465251
ss.