(dp1
S'parError'
p2
(dp3
S'rhoMuonW_0b_ge2j_4'
p4
F0.11934558694941416
sS'rhoMuonW_0b_ge2j_5'
p5
F0.14719037067610868
sS'rhoMuonW_0b_ge2j_6'
p6
F0.14642487484240357
sS'rhoMuonW_0b_ge2j_7'
p7
F0.14756120610601331
sS'rhoMuonW_0b_ge2j_0'
p8
F0.027657422982942437
sS'rhoMuonW_0b_ge2j_1'
p9
F0.037380249573297109
sS'rhoMuonW_0b_ge2j_2'
p10
F0.055857487114602811
sS'rhoMuonW_0b_ge2j_3'
p11
F0.11620793929748158
sS'fZinv_0b_ge2j_7'
p12
F0.06398989876962502
sS'fZinv_0b_ge2j_6'
p13
F0.05475222806803931
sS'fZinv_0b_ge2j_5'
p14
F0.045639270008903776
sS'fZinv_0b_ge2j_4'
p15
F0.041390373113695089
sS'fZinv_0b_ge2j_3'
p16
F0.039603506008229317
sS'fZinv_0b_ge2j_2'
p17
F0.019916893282348247
sS'fZinv_0b_ge2j_1'
p18
F0.013722383990366238
sS'fZinv_0b_ge2j_0'
p19
F0.010237810188122476
sS'ewk_0b_ge2j_3'
p20
F9.2143737960938097
sS'ewk_0b_ge2j_2'
p21
F14.478062948793877
sS'ewk_0b_ge2j_1'
p22
F24.113907399499908
sS'ewk_0b_ge2j_0'
p23
F44.836894184499442
sS'ewk_0b_ge2j_7'
p24
F1.3223761096394755
sS'ewk_0b_ge2j_6'
p25
F2.1106472916925298
sS'ewk_0b_ge2j_5'
p26
F3.2292343153649092
sS'ewk_0b_ge2j_4'
p27
F5.3150847666521948
sS'rhoPhotZ_0b_ge2j_1'
p28
F0.032460827365417499
sS'rhoPhotZ_0b_ge2j_0'
p29
F0.023600445484504573
sS'rhoPhotZ_0b_ge2j_3'
p30
F0.09445257456985845
sS'rhoPhotZ_0b_ge2j_2'
p31
F0.047790369538160349
sS'rhoPhotZ_0b_ge2j_5'
p32
F0.13677206222624866
sS'rhoPhotZ_0b_ge2j_4'
p33
F0.1073732200063795
sS'rhoPhotZ_0b_ge2j_7'
p34
F0.14451276423838544
sS'rhoPhotZ_0b_ge2j_6'
p35
F0.13536399935619681
ssS'lMax'
p36
F-65.335618102205999
sS'funcBestFit'
p37
(dp38
S'photExp_0b_ge2j_4'
p39
F81.808181014075302
sS'qcd_0b_ge2j_7'
p40
F0
sS'photExp_0b_ge2j_6'
p41
F19.814650971891869
sS'photExp_0b_ge2j_2'
p42
F570.91429595731984
sS'qcd_0b_ge2j_1'
p43
F0
sS'qcd_0b_ge2j_2'
p44
F0
sS'qcd_0b_ge2j_3'
p45
F0
sS'qcd_0b_ge2j_4'
p46
F0
sS'qcd_0b_ge2j_5'
p47
F0
sS'qcd_0b_ge2j_6'
p48
F0
sS'ttw_0b_ge2j_0'
p49
F1174.6874008814914
sS'muonB_0b_ge2j_3'
p50
F994.5255776271739
sS'muonB_0b_ge2j_2'
p51
F2103.8323858219424
sS'muonB_0b_ge2j_1'
p52
F4433.7708222714737
sS'muonB_0b_ge2j_0'
p53
F10313.455358943447
sS'muonB_0b_ge2j_7'
p54
F82.954793960320956
sS'muonB_0b_ge2j_6'
p55
F125.59355960368931
sS'muonB_0b_ge2j_5'
p56
F239.62481299021343
sS'muonB_0b_ge2j_4'
p57
F487.90960629392288
sS'photExp_0b_ge2j_7'
p58
F11.800751434840945
sS'hadB_0b_ge2j_7'
p59
F6.2633566121479074
sS'photExp_0b_ge2j_3'
p60
F211.26013554927249
sS'ttw_0b_ge2j_7'
p61
F1.5670427438219907
sS'ttw_0b_ge2j_6'
p62
F3.0854529192135245
sS'hadB_0b_ge2j_6'
p63
F12.537580197664452
sS'zInv_0b_ge2j_4'
p64
F41.816451820154604
sS'zInv_0b_ge2j_5'
p65
F19.104081844328956
sS'zInv_0b_ge2j_6'
p66
F9.4521272784509272
sS'zInv_0b_ge2j_7'
p67
F4.6963138683259169
sS'zInv_0b_ge2j_0'
p68
F1966.2108707730438
sS'zInv_0b_ge2j_1'
p69
F690.74174325793797
sS'zInv_0b_ge2j_2'
p70
F269.6123838412459
sS'zInv_0b_ge2j_3'
p71
F95.057383559539957
sS'photExp_0b_ge2j_5'
p72
F41.875577864698926
sS'hadB_0b_ge2j_0'
p73
F3140.8982716545352
sS'photExp_0b_ge2j_0'
p74
F4399.6713189472248
sS'hadB_0b_ge2j_1'
p75
F1061.9979463365028
sS'photExp_0b_ge2j_1'
p76
F1551.3963615823636
sS'ttw_0b_ge2j_1'
p77
F371.25620307856485
sS'hadB_0b_ge2j_4'
p78
F60.254026945672514
sS'hadB_0b_ge2j_5'
p79
F25.475795903223897
sS'ttw_0b_ge2j_5'
p80
F6.3717140588949395
sS'ttw_0b_ge2j_4'
p81
F18.43757512551791
sS'ttw_0b_ge2j_3'
p82
F46.299528600726674
sS'ttw_0b_ge2j_2'
p83
F129.67308147663474
sS'hadB_0b_ge2j_2'
p84
F399.28546531788066
sS'hadB_0b_ge2j_3'
p85
F141.35691216026663
ssS'chi2Prob'
p86
F0.91295310671861185
sS'parBestFit'
p87
(dp88
g4
F1.0010112031907614
sg5
F1.0079078746623229
sg6
F0.98748247002267209
sg7
F1.0000316817479895
sg8
F1.0146631215242068
sg9
F0.99886388182393149
sg10
F0.98714792046205169
sg11
F0.99354073525299358
sg12
F0.74980783613970192
sg13
F0.75390363446781428
sg14
F0.74989146234726212
sg15
F0.69400260762418453
sg16
F0.67246363907388185
sg17
F0.67523716052774696
sg18
F0.65041721186066281
sg19
F0.62600272301633642
sg20
F141.35691216026663
sg21
F399.28546531788066
sg22
F1061.9979463365028
sg23
F3140.8982716545352
sg24
F6.2633566121479074
sg25
F12.537580197664452
sg26
F25.475795903223897
sg27
F60.254026945672514
sg28
F0.99808030287956961
sg29
F1.0239988867146264
sg30
F0.98149159817927578
sg31
F0.97340120038126177
sg32
F1.0247246845914768
sg33
F1.0025878808428992
sg34
F1.0041305893584316
sg35
F0.961143034484087
ss.