(dp1
S'parError'
p2
(dp3
S'rhoMuonW_1b_le3j_7'
p4
F0.14839122236516439
sS'rhoMuonW_1b_le3j_6'
p5
F0.14799954735042242
sS'rhoMuonW_1b_le3j_5'
p6
F0.14799326524588896
sS'rhoMuonW_1b_le3j_4'
p7
F0.10418354112398437
sS'rhoMuonW_1b_le3j_3'
p8
F0.10251985593369262
sS'rhoMuonW_1b_le3j_2'
p9
F0.048442430066637177
sS'rhoMuonW_1b_le3j_1'
p10
F0.038608732841156457
sS'rhoMuonW_1b_le3j_0'
p11
F0.028191012731146825
sS'fZinv_1b_le3j_4'
p12
F0.1052532176580557
sS'fZinv_1b_le3j_5'
p13
F0.077927037912156494
sS'fZinv_1b_le3j_6'
p14
F0.12145383547725941
sS'fZinv_1b_le3j_7'
p15
F0.82605390159616721
sS'fZinv_1b_le3j_0'
p16
F0.016457008533779571
sS'fZinv_1b_le3j_1'
p17
F0.025225384640298554
sS'fZinv_1b_le3j_2'
p18
F0.03877692511214953
sS'fZinv_1b_le3j_3'
p19
F0.065682805890772133
sS'ewk_1b_le3j_0'
p20
F10.94125877329023
sS'ewk_1b_le3j_1'
p21
F5.3043708250277604
sS'ewk_1b_le3j_2'
p22
F2.8692878208890598
sS'ewk_1b_le3j_3'
p23
F1.5399119924457567
sS'ewk_1b_le3j_4'
p24
F0.81998929339574711
sS'ewk_1b_le3j_5'
p25
F0.59715152390246951
sS'ewk_1b_le3j_6'
p26
F0.31228325647988636
sS'ewk_1b_le3j_7'
p27
F0.046380749899898044
sS'rhoPhotZ_1b_le3j_6'
p28
F0.14642518898225698
sS'rhoPhotZ_1b_le3j_7'
p29
F0.14814330559451205
sS'rhoPhotZ_1b_le3j_4'
p30
F0.10408342551569005
sS'rhoPhotZ_1b_le3j_5'
p31
F0.14580217464773604
sS'rhoPhotZ_1b_le3j_2'
p32
F0.048186616411328487
sS'rhoPhotZ_1b_le3j_3'
p33
F0.099475455709463478
sS'rhoPhotZ_1b_le3j_0'
p34
F0.028400524456222098
sS'rhoPhotZ_1b_le3j_1'
p35
F0.03830903537575614
ssS'lMax'
p36
F-38.25688171664958
sS'funcBestFit'
p37
(dp38
S'ttw_1b_le3j_4'
p39
F1.6366075818965506
sS'ttw_1b_le3j_5'
p40
F0.30122732268562569
sS'hadB_1b_le3j_5'
p41
F1.6289269157474873
sS'hadB_1b_le3j_4'
p42
F3.6619167182139858
sS'ttw_1b_le3j_0'
p43
F212.98376976891171
sS'ttw_1b_le3j_1'
p44
F49.80100451715834
sS'ttw_1b_le3j_2'
p45
F15.343445581272514
sS'hadB_1b_le3j_0'
p46
F403.15267364406958
sS'ttw_1b_le3j_6'
p47
F0.086923257689662414
sS'muonB_1b_le3j_0'
p48
F2291.4102818173801
sS'muonB_1b_le3j_1'
p49
F789.55192610690403
sS'muonB_1b_le3j_2'
p50
F325.54813394822401
sS'ttw_1b_le3j_7'
p51
F0.12127511677156788
sS'muonB_1b_le3j_4'
p52
F62.702412775635807
sS'muonB_1b_le3j_5'
p53
F25.059382758237696
sS'muonB_1b_le3j_6'
p54
F16.08816282271766
sS'muonB_1b_le3j_7'
p55
F7.880989574911502
sS'hadB_1b_le3j_3'
p56
F10.048148192492265
sS'hadB_1b_le3j_2'
p57
F35.751702776668388
sS'hadB_1b_le3j_1'
p58
F110.39862230143548
sS'hadB_1b_le3j_6'
p59
F0.48737950871552582
sS'ttw_1b_le3j_3'
p60
F3.6469153014842521
sS'qcd_1b_le3j_7'
p61
F0
sS'qcd_1b_le3j_6'
p62
F0
sS'qcd_1b_le3j_5'
p63
F0
sS'qcd_1b_le3j_4'
p64
F0
sS'qcd_1b_le3j_3'
p65
F0
sS'qcd_1b_le3j_2'
p66
F0
sS'qcd_1b_le3j_1'
p67
F0
sS'photExp_1b_le3j_5'
p68
F4.3110943122573833
sS'photExp_1b_le3j_4'
p69
F5.6487364291405786
sS'photExp_1b_le3j_7'
p70
F3.7171713165940776e-07
sS'photExp_1b_le3j_6'
p71
F1.4268451754398876
sS'photExp_1b_le3j_1'
p72
F147.11912480922837
sS'photExp_1b_le3j_0'
p73
F461.37720801723373
sS'photExp_1b_le3j_3'
p74
F18.149887684347487
sS'photExp_1b_le3j_2'
p75
F49.717950384103119
sS'zInv_1b_le3j_7'
p76
F1.0110924619565995e-07
sS'zInv_1b_le3j_6'
p77
F0.40045625102586341
sS'zInv_1b_le3j_5'
p78
F1.3276995930618616
sS'zInv_1b_le3j_4'
p79
F2.0253091363174351
sS'zInv_1b_le3j_3'
p80
F6.4012328910080125
sS'zInv_1b_le3j_2'
p81
F20.408257195395873
sS'zInv_1b_le3j_1'
p82
F60.597617784277141
sS'zInv_1b_le3j_0'
p83
F190.16890387515787
sS'hadB_1b_le3j_7'
p84
F0.12127521788081408
sS'muonB_1b_le3j_3'
p85
F138.79503416971514
ssS'chi2Prob'
p86
F0.31063858973970143
sS'parBestFit'
p87
(dp88
g4
F1.0028069279534531
sg5
F0.99819000072934982
sg6
F0.9987842317812855
sg7
F1.0034349845297521
sg8
F0.98061566186180538
sg9
F0.99864561879631641
sg10
F0.99604335382084108
sg11
F0.9831794775978826
sg12
F0.55307351099596613
sg13
F0.81507621994974677
sg14
F0.8216518008343312
sg15
F8.3371729164838371e-07
sg16
F0.47170443434303461
sg17
F0.54889831522371457
sg18
F0.57083315228035325
sg19
F0.63705597970687378
sg20
F403.15267364406958
sg21
F110.39862230143548
sg22
F35.751702776668388
sg23
F10.048148192492265
sg24
F3.6619167182139858
sg25
F1.6289269157474873
sg26
F0.48737950871552582
sg27
F0.12127521788081408
sg28
F0.99065342107558796
sg29
F0.99997837602016326
sg30
F1.0038341915297468
sg31
F0.99306694613875512
sg32
F0.99827616580380907
sg33
F0.96620360552151352
sg34
F0.9849952903207253
sg35
F0.99523187482255104
ss.