(dp1
S'parError'
p2
(dp3
S'rhoMuonW_2b_ge2j_6'
p4
F0.1489608312178744
sS'rhoMuonW_2b_ge2j_7'
p5
F0.14545660404247229
sS'rhoMuonW_2b_ge2j_4'
p6
F0.1222555595841765
sS'rhoMuonW_2b_ge2j_5'
p7
F0.14362884064559922
sS'rhoMuonW_2b_ge2j_2'
p8
F0.053344668924601713
sS'rhoMuonW_2b_ge2j_3'
p9
F0.10519280118304086
sS'rhoMuonW_2b_ge2j_0'
p10
F0.027691050112454985
sS'rhoMuonW_2b_ge2j_1'
p11
F0.037159471062087612
sS'ewk_2b_ge2j_1'
p12
F3.1688581226295405
sS'ewk_2b_ge2j_0'
p13
F4.9053638429804352
sS'ewk_2b_ge2j_3'
p14
F1.2122606417022972
sS'ewk_2b_ge2j_2'
p15
F1.7567812034133485
sS'ewk_2b_ge2j_5'
p16
F0.24368072965352983
sS'ewk_2b_ge2j_4'
p17
F0.3542298540555171
sS'ewk_2b_ge2j_7'
p18
F0.12596628234222834
sS'ewk_2b_ge2j_6'
p19
F0.14456719262133905
ssS'lMax'
p20
F-38.270629721139038
sS'funcBestFit'
p21
(dp22
S'hadB_2b_ge2j_6'
p23
F0.46403789243053273
sS'hadB_2b_ge2j_7'
p24
F0.37787488193250118
sS'hadB_2b_ge2j_4'
p25
F2.1303842262084594
sS'hadB_2b_ge2j_5'
p26
F1.0088775969665553
sS'hadB_2b_ge2j_2'
p27
F24.014559806752089
sS'hadB_2b_ge2j_3'
p28
F8.9995342116824499
sS'hadB_2b_ge2j_0'
p29
F136.55093136511042
sS'hadB_2b_ge2j_1'
p30
F64.163306277831595
sS'muonB_2b_ge2j_1'
p31
F738.84615778523914
sS'muonB_2b_ge2j_0'
p32
F1443.4750072106681
sS'muonB_2b_ge2j_3'
p33
F147.9943167843841
sS'muonB_2b_ge2j_2'
p34
F363.95470533639082
sS'muonB_2b_ge2j_5'
p35
F24.982412208717715
sS'muonB_2b_ge2j_4'
p36
F68.865599238208645
sS'muonB_2b_ge2j_7'
p37
F10.619018612307539
sS'muonB_2b_ge2j_6'
p38
F12.537265324596547
sS'qcd_2b_ge2j_2'
p39
F0
sS'qcd_2b_ge2j_3'
p40
F0
sS'qcd_2b_ge2j_1'
p41
F0
sS'qcd_2b_ge2j_6'
p42
F0
sS'qcd_2b_ge2j_7'
p43
F0
sS'qcd_2b_ge2j_4'
p44
F0
sS'qcd_2b_ge2j_5'
p45
F0
ssS'chi2Prob'
p46
F0.0057091445397395944
sS'parBestFit'
p47
(dp48
g4
F1.0103705279760433
sg5
F0.98591824757721969
sg6
F1.0169365150794027
sg7
F0.97942272880015502
sg8
F0.95019916516553005
sg9
F0.91444287918504719
sg10
F0.98658305212327957
sg11
F0.98960337595392633
sg12
F64.163306277831595
sg13
F136.55093136511042
sg14
F8.9995342116824499
sg15
F24.014559806752089
sg16
F1.0088775969665553
sg17
F2.1303842262084594
sg18
F0.37787488193250118
sg19
F0.46403789243053273
ss.