(dp1
S'parError'
p2
(dp3
S'rhoMuonW_0b_ge2j_4'
p4
F0.1221129939339064
sS'rhoMuonW_0b_ge2j_5'
p5
F0.14778868740537576
sS'rhoMuonW_0b_ge2j_6'
p6
F0.14793996877605314
sS'rhoMuonW_0b_ge2j_7'
p7
F0.14828054009785679
sS'rhoMuonW_0b_ge2j_0'
p8
F0.029580841875819552
sS'rhoMuonW_0b_ge2j_1'
p9
F0.03920950752898944
sS'rhoMuonW_0b_ge2j_2'
p10
F0.058247126191184329
sS'rhoMuonW_0b_ge2j_3'
p11
F0.12232425666469648
sS'fZinv_0b_ge2j_7'
p12
F0.069099524250559485
sS'fZinv_0b_ge2j_6'
p13
F0.064284867046149774
sS'fZinv_0b_ge2j_5'
p14
F0.049041870788965991
sS'fZinv_0b_ge2j_4'
p15
F0.044509376499053566
sS'fZinv_0b_ge2j_3'
p16
F0.041712405933981511
sS'fZinv_0b_ge2j_2'
p17
F0.021032052675972579
sS'fZinv_0b_ge2j_1'
p18
F0.01429253873450731
sS'fZinv_0b_ge2j_0'
p19
F0.010618534772609101
sS'ewk_0b_ge2j_3'
p20
F14.256342366261372
sS'ewk_0b_ge2j_2'
p21
F20.23618359751211
sS'ewk_0b_ge2j_1'
p22
F35.736875062627973
sS'ewk_0b_ge2j_0'
p23
F76.809321597834469
sS'ewk_0b_ge2j_7'
p24
F1.5811856489086522
sS'ewk_0b_ge2j_6'
p25
F2.3584513966361795
sS'ewk_0b_ge2j_5'
p26
F4.4070053623413639
sS'ewk_0b_ge2j_4'
p27
F7.3288604787727465
sS'rhoPhotZ_0b_ge2j_1'
p28
F0.039233281598310743
sS'rhoPhotZ_0b_ge2j_0'
p29
F0.029559599400729719
sS'rhoPhotZ_0b_ge2j_3'
p30
F0.12193430044300191
sS'rhoPhotZ_0b_ge2j_2'
p31
F0.058248831899348597
sS'rhoPhotZ_0b_ge2j_5'
p32
F0.14814481393857332
sS'rhoPhotZ_0b_ge2j_4'
p33
F0.1221115173625813
sS'rhoPhotZ_0b_ge2j_7'
p34
F0.14818753065880508
sS'rhoPhotZ_0b_ge2j_6'
p35
F0.14814706035334468
ssS'lMax'
p36
F-37.401810258351126
sS'funcBestFit'
p37
(dp38
S'photExp_0b_ge2j_4'
p39
F81.992310765856075
sS'qcd_0b_ge2j_7'
p40
F0
sS'photExp_0b_ge2j_6'
p41
F18.003736282033437
sS'photExp_0b_ge2j_2'
p42
F562.99151684274875
sS'qcd_0b_ge2j_1'
p43
F0
sS'qcd_0b_ge2j_2'
p44
F0
sS'qcd_0b_ge2j_3'
p45
F0
sS'qcd_0b_ge2j_4'
p46
F0
sS'qcd_0b_ge2j_5'
p47
F0
sS'qcd_0b_ge2j_6'
p48
F0
sS'ttw_0b_ge2j_0'
p49
F1193.5401680100031
sS'muonB_0b_ge2j_3'
p50
F993.89035968792791
sS'muonB_0b_ge2j_2'
p51
F2099.945823407455
sS'muonB_0b_ge2j_1'
p52
F4433.0021974151396
sS'muonB_0b_ge2j_0'
p53
F10329.819754018921
sS'muonB_0b_ge2j_7'
p54
F83.016210488057254
sS'muonB_0b_ge2j_6'
p55
F125.01656249140342
sS'muonB_0b_ge2j_5'
p56
F240.02952360883231
sS'muonB_0b_ge2j_4'
p57
F488.06789573188985
sS'photExp_0b_ge2j_7'
p58
F11.993382624756608
sS'hadB_0b_ge2j_7'
p59
F6.3593697520978587
sS'photExp_0b_ge2j_3'
p60
F210.06098623442944
sS'ttw_0b_ge2j_7'
p61
F1.5674546542646868
sS'ttw_0b_ge2j_6'
p62
F3.0364390818040943
sS'hadB_0b_ge2j_6'
p63
F11.292117231828531
sS'zInv_0b_ge2j_4'
p64
F42.01580093895857
sS'zInv_0b_ge2j_5'
p65
F20.121858632812273
sS'zInv_0b_ge2j_6'
p66
F8.2556781500244369
sS'zInv_0b_ge2j_7'
p67
F4.7919150978331722
sS'zInv_0b_ge2j_0'
p68
F2026.1492149305127
sS'zInv_0b_ge2j_1'
p69
F688.44683096587903
sS'zInv_0b_ge2j_2'
p70
F258.79924323718029
sS'zInv_0b_ge2j_3'
p71
F92.847995109270784
sS'photExp_0b_ge2j_5'
p72
F43.023994655726717
sS'hadB_0b_ge2j_0'
p73
F3219.6893829405158
sS'photExp_0b_ge2j_0'
p74
F4427.081120711633
sS'hadB_0b_ge2j_1'
p75
F1059.2405523390482
sS'photExp_0b_ge2j_1'
p76
F1549.8527098087613
sS'ttw_0b_ge2j_1'
p77
F370.79372137316921
sS'hadB_0b_ge2j_4'
p78
F60.480822596317097
sS'hadB_0b_ge2j_5'
p79
F26.568200790792076
sS'ttw_0b_ge2j_5'
p80
F6.4463421579798021
sS'ttw_0b_ge2j_4'
p81
F18.46502165735853
sS'ttw_0b_ge2j_3'
p82
F45.872935058538786
sS'ttw_0b_ge2j_2'
p83
F127.77065118586573
sS'hadB_0b_ge2j_2'
p84
F386.56989442304604
sS'hadB_0b_ge2j_3'
p85
F138.72093016780957
ssS'chi2Prob'
p86
F0
sS'parBestFit'
p87
(dp88
g4
F0.99984756247663131
sg5
F0.99792209676405585
sg6
F0.99881241004535926
sg7
F1.0005090743333818
sg8
F1.0002203761842083
sg9
F0.99993636373735817
sg10
F0.99999519297114015
sg11
F1.0021396377179883
sg12
F0.75352044064624368
sg13
F0.73110099554710306
sg14
F0.75736625115337297
sg15
F0.69469625470201635
sg16
F0.66931496924763501
sg17
F0.66947593946351436
sg18
F0.64994380119381678
sg19
F0.62929959196251639
sg20
F138.72093016780957
sg21
F386.56989442304604
sg22
F1059.2405523390482
sg23
F3219.6893829405158
sg24
F6.3593697520978587
sg25
F11.292117231828531
sg26
F26.568200790792076
sg27
F60.480822596317097
sg28
F1.0004109586776206
sg29
F0.99989730609639205
sg30
F0.99914324885194428
sg31
F0.99999918171921098
sg32
F0.99957455515183302
sg33
F1.0000768476579713
sg34
F1.000161708846167
sg35
F0.99986426356056712
ss.