(dp1
S'parError'
p2
(dp3
S'rhoMuonW_0b_le3j_2'
p4
F0.047990491203123042
sS'rhoMuonW_0b_le3j_3'
p5
F0.10196965555635257
sS'rhoMuonW_0b_le3j_0'
p6
F0.027948261038429512
sS'rhoMuonW_0b_le3j_1'
p7
F0.037892355224039109
sS'rhoMuonW_0b_le3j_6'
p8
F0.14686785999140917
sS'rhoMuonW_0b_le3j_7'
p9
F0.14755578659313817
sS'rhoMuonW_0b_le3j_4'
p10
F0.10340009862480692
sS'rhoMuonW_0b_le3j_5'
p11
F0.14859628090584209
sS'fZinv_0b_le3j_1'
p12
F0.01363984133750723
sS'fZinv_0b_le3j_0'
p13
F0.010086774111027264
sS'fZinv_0b_le3j_3'
p14
F0.034975183488744455
sS'fZinv_0b_le3j_2'
p15
F0.017310072190629411
sS'fZinv_0b_le3j_5'
p16
F0.051124899175083449
sS'fZinv_0b_le3j_4'
p17
F0.042153615672815725
sS'fZinv_0b_le3j_7'
p18
F0.05819414695509173
sS'fZinv_0b_le3j_6'
p19
F0.063190214652523446
sS'ewk_0b_le3j_5'
p20
F1.979449520521011
sS'ewk_0b_le3j_4'
p21
F3.4404018023715306
sS'ewk_0b_le3j_7'
p22
F0.88694951781868503
sS'ewk_0b_le3j_6'
p23
F1.3575720520065091
sS'ewk_0b_le3j_1'
p24
F19.259248134817653
sS'ewk_0b_le3j_0'
p25
F40.236511704705208
sS'ewk_0b_le3j_3'
p26
F5.7947547130729475
sS'ewk_0b_le3j_2'
p27
F10.067621167801661
sS'rhoPhotZ_0b_le3j_3'
p28
F0.091243935776027574
sS'rhoPhotZ_0b_le3j_2'
p29
F0.044171146819843632
sS'rhoPhotZ_0b_le3j_1'
p30
F0.033421737181931921
sS'rhoPhotZ_0b_le3j_0'
p31
F0.023636009295920524
sS'rhoPhotZ_0b_le3j_7'
p32
F0.14337256374510121
sS'rhoPhotZ_0b_le3j_6'
p33
F0.13794438635173756
sS'rhoPhotZ_0b_le3j_5'
p34
F0.14693519979918873
sS'rhoPhotZ_0b_le3j_4'
p35
F0.099462094217045383
ssS'lMax'
p36
F-59.339469897091028
sS'funcBestFit'
p37
(dp38
S'photExp_0b_le3j_0'
p39
F3984.2517652788592
sS'photExp_0b_le3j_1'
p40
F1208.6537731413757
sS'photExp_0b_le3j_2'
p41
F408.4873883836172
sS'photExp_0b_le3j_3'
p42
F127.4746117454451
sS'photExp_0b_le3j_4'
p43
F48.788066913473145
sS'photExp_0b_le3j_5'
p44
F19.86576828986782
sS'photExp_0b_le3j_6'
p45
F12.05547014126015
sS'photExp_0b_le3j_7'
p46
F7.7018955910086913
sS'zInv_0b_le3j_2'
p47
F177.74180799371004
sS'zInv_0b_le3j_3'
p48
F53.274033021468064
sS'zInv_0b_le3j_0'
p49
F1710.4731273069876
sS'zInv_0b_le3j_1'
p50
F508.81303655531673
sS'zInv_0b_le3j_6'
p51
F4.8066363264980803
sS'zInv_0b_le3j_7'
p52
F2.597122976953655
sS'zInv_0b_le3j_4'
p53
F23.136145621172716
sS'zInv_0b_le3j_5'
p54
F8.9655171095354262
sS'muonB_0b_le3j_5'
p55
F158.31926079276235
sS'hadB_0b_le3j_2'
p56
F252.30408903870466
sS'muonB_0b_le3j_7'
p57
F54.123481989622128
sS'muonB_0b_le3j_6'
p58
F78.6476969295489
sS'muonB_0b_le3j_1'
p59
F3546.257309791883
sS'muonB_0b_le3j_0'
p60
F9069.2611350158968
sS'muonB_0b_le3j_3'
p61
F686.14102488592016
sS'ttw_0b_le3j_0'
p62
F941.08053770500908
sS'hadB_0b_le3j_0'
p63
F2651.5536650119966
sS'qcd_0b_le3j_2'
p64
F0
sS'qcd_0b_le3j_3'
p65
F0
sS'qcd_0b_le3j_1'
p66
F0
sS'qcd_0b_le3j_6'
p67
F0
sS'qcd_0b_le3j_7'
p68
F0
sS'qcd_0b_le3j_4'
p69
F0
sS'qcd_0b_le3j_5'
p70
F0
sS'hadB_0b_le3j_6'
p71
F6.2945510135183289
sS'hadB_0b_le3j_7'
p72
F3.1522762734704246
sS'ttw_0b_le3j_7'
p73
F0.55515329651676981
sS'muonB_0b_le3j_4'
p74
F325.44927727349574
sS'ttw_0b_le3j_6'
p75
F1.4879146870202489
sS'muonB_0b_le3j_2'
p76
F1538.1437634559763
sS'ttw_0b_le3j_1'
p77
F249.37717136033285
sS'hadB_0b_le3j_3'
p78
F76.456493310715885
sS'ttw_0b_le3j_3'
p79
F23.182460289247825
sS'hadB_0b_le3j_1'
p80
F758.19020791564958
sS'ttw_0b_le3j_5'
p81
F2.8230747044192932
sS'ttw_0b_le3j_4'
p82
F10.602318964750822
sS'hadB_0b_le3j_4'
p83
F33.738464585923538
sS'hadB_0b_le3j_5'
p84
F11.788591813954719
sS'ttw_0b_le3j_2'
p85
F74.56228104499462
ssS'chi2Prob'
p86
F0.88653513591982724
sS'parBestFit'
p87
(dp88
g4
F0.99948496359243544
sg5
F0.99868609979602341
sg6
F1.0078040445084522
sg7
F0.99806016834556632
sg8
F0.98707125255391059
sg9
F0.99593254127177644
sg10
F1.0061230592620727
sg11
F1.0147696835012097
sg12
F0.67108890518924158
sg13
F0.64508335240473014
sg14
F0.69678886271915053
sg15
F0.70447454367829765
sg16
F0.76052485750863941
sg17
F0.68574980827152543
sg18
F0.82388812135885958
sg19
F0.76361861492189553
sg20
F11.788591813954719
sg21
F33.738464585923538
sg22
F3.1522762734704246
sg23
F6.2945510135183289
sg24
F758.19020791564958
sg25
F2651.5536650119966
sg26
F76.456493310715885
sg27
F252.30408903870466
sg28
F0.99460307060647368
sg29
F0.99883098807390314
sg30
F0.99585987134982745
sg31
F1.0138726380466176
sg32
F0.98460354867335975
sg33
F0.95578514418609928
sg34
F1.0482244325524808
sg35
F1.0134003989568554
ss.