(dp1
S'parError'
p2
(dp3
S'rhoMuonW_0b_le3j_2'
p4
F0.065875130771873514
sS'rhoMuonW_0b_le3j_3'
p5
F0.11027935268248612
sS'rhoMuonW_0b_le3j_0'
p6
F0.052932532925228259
sS'rhoMuonW_0b_le3j_1'
p7
F0.055161177890745761
sS'rhoMuonW_0b_le3j_6'
p8
F0.15493769615190461
sS'rhoMuonW_0b_le3j_7'
p9
F0.15622135782845381
sS'rhoMuonW_0b_le3j_4'
p10
F0.112215425732268
sS'rhoMuonW_0b_le3j_5'
p11
F0.15732582604422257
sS'fZinv_0b_le3j_1'
p12
F0.018721064905319995
sS'fZinv_0b_le3j_0'
p13
F0.018509616762498737
sS'fZinv_0b_le3j_3'
p14
F0.037164952064444867
sS'fZinv_0b_le3j_2'
p15
F0.021627329305315524
sS'fZinv_0b_le3j_5'
p16
F0.052410849893796185
sS'fZinv_0b_le3j_4'
p17
F0.043955793431598056
sS'fZinv_0b_le3j_7'
p18
F0.059086839170842065
sS'fZinv_0b_le3j_6'
p19
F0.064326759565461966
sS'ewk_0b_le3j_5'
p20
F2.0018243750122764
sS'ewk_0b_le3j_4'
p21
F3.5125045552888938
sS'ewk_0b_le3j_7'
p22
F0.89449976411998722
sS'ewk_0b_le3j_6'
p23
F1.3757387885359154
sS'ewk_0b_le3j_1'
p24
F21.975085781147413
sS'ewk_0b_le3j_0'
p25
F47.000913142808258
sS'ewk_0b_le3j_3'
p26
F5.9619210506392548
sS'ewk_0b_le3j_2'
p27
F11.221812475220801
sS'rhoPhotZ_0b_le3j_3'
p28
F0.097287464595607831
sS'rhoPhotZ_0b_le3j_2'
p29
F0.057003408193647243
sS'rhoPhotZ_0b_le3j_1'
p30
F0.044014730921124234
sS'rhoPhotZ_0b_le3j_0'
p31
F0.037330246061951788
sS'rhoPhotZ_0b_le3j_7'
p32
F0.1511030356928954
sS'rhoPhotZ_0b_le3j_6'
p33
F0.14464919608362986
sS'rhoPhotZ_0b_le3j_5'
p34
F0.15506870665915401
sS'rhoPhotZ_0b_le3j_4'
p35
F0.10709032754568543
ssS'lMax'
p36
F-62.617619196028613
sS'funcBestFit'
p37
(dp38
S'photExp_0b_le3j_0'
p39
F3993.38699182251
sS'photExp_0b_le3j_1'
p40
F1207.9019392434982
sS'photExp_0b_le3j_2'
p41
F408.40084540618255
sS'photExp_0b_le3j_3'
p42
F127.40687848825547
sS'photExp_0b_le3j_4'
p43
F48.844372791078754
sS'photExp_0b_le3j_5'
p44
F19.920988949898337
sS'photExp_0b_le3j_6'
p45
F12.048607386222558
sS'photExp_0b_le3j_7'
p46
F7.6928306436445952
sS'zInv_0b_le3j_2'
p47
F177.82236559114116
sS'zInv_0b_le3j_3'
p48
F53.239108750233179
sS'zInv_0b_le3j_0'
p49
F1699.9660267967784
sS'zInv_0b_le3j_1'
p50
F509.63294975578617
sS'zInv_0b_le3j_6'
p51
F4.8296988438969679
sS'zInv_0b_le3j_7'
p52
F2.5983107410967738
sS'zInv_0b_le3j_4'
p53
F23.128330854833763
sS'zInv_0b_le3j_5'
p54
F8.9548880280983134
sS'muonB_0b_le3j_5'
p55
F158.32765194218265
sS'hadB_0b_le3j_2'
p56
F252.40779918395307
sS'muonB_0b_le3j_7'
p57
F54.152880212028535
sS'muonB_0b_le3j_6'
p58
F78.630896014688844
sS'muonB_0b_le3j_1'
p59
F3545.8984293490121
sS'muonB_0b_le3j_0'
p60
F9074.3874993717072
sS'muonB_0b_le3j_3'
p61
F686.18846191535556
sS'ttw_0b_le3j_0'
p62
F937.52441360729506
sS'hadB_0b_le3j_0'
p63
F2637.4904404040735
sS'qcd_0b_le3j_2'
p64
F0
sS'qcd_0b_le3j_3'
p65
F0
sS'qcd_0b_le3j_1'
p66
F0
sS'qcd_0b_le3j_6'
p67
F0
sS'qcd_0b_le3j_7'
p68
F0
sS'qcd_0b_le3j_4'
p69
F0
sS'qcd_0b_le3j_5'
p70
F0
sS'hadB_0b_le3j_6'
p71
F6.3209781594602665
sS'hadB_0b_le3j_7'
p72
F3.1535890491328189
sS'ttw_0b_le3j_7'
p73
F0.55527830803604483
sS'muonB_0b_le3j_4'
p74
F325.43477942823284
sS'ttw_0b_le3j_6'
p75
F1.4912793155632986
sS'muonB_0b_le3j_2'
p76
F1538.1809997465421
sS'ttw_0b_le3j_1'
p77
F249.55040700809982
sS'hadB_0b_le3j_3'
p78
F76.450736301505103
sS'ttw_0b_le3j_3'
p79
F23.211627551271928
sS'hadB_0b_le3j_1'
p80
F759.18335676388597
sS'ttw_0b_le3j_5'
p81
F2.8174054122502432
sS'ttw_0b_le3j_4'
p82
F10.584536741956365
sS'hadB_0b_le3j_4'
p83
F33.712867596790126
sS'hadB_0b_le3j_5'
p84
F11.772293440348557
sS'ttw_0b_le3j_2'
p85
F74.58543359281191
ssS'chi2Prob'
p86
F0.91677207213090528
sS'parBestFit'
p87
(dp88
g4
F0.99919889559745467
sg5
F0.99750012940612087
sg6
F1.0121985643508884
sg7
F0.99726639060547495
sg8
F0.98463383479665345
sg9
F0.9962491622561126
sg10
F1.007768469877993
sg11
F1.0168655348025306
sg12
F0.67129099342767518
sg13
F0.64453921832465
sg14
F0.69638451277002344
sg15
F0.70450424339521078
sg16
F0.76067489087607854
sg17
F0.68603867020306097
sg18
F0.82392179215971828
sg19
F0.76407459764255292
sg20
F11.772293440348557
sg21
F33.712867596790126
sg22
F3.1535890491328189
sg23
F6.3209781594602665
sg24
F759.18335676388597
sg25
F2637.4904404040735
sg26
F76.450736301505103
sg27
F252.40779918395307
sg28
F0.99472669323782581
sg29
F0.99816697627923368
sg30
F0.9936392308384826
sg31
F1.0224781619040573
sg32
F0.98299513233667923
sg33
F0.95067963379646714
sg34
F1.0523858281066472
sg35
F1.0149127655913408
ss.