(dp1
S'parError'
p2
(dp3
S'ewk_2b_le3j_7'
p4
F0.0013137141621338833
sS'ewk_2b_le3j_6'
p5
F0.017086121625882744
sS'ewk_2b_le3j_5'
p6
F0.018332515245405301
sS'ewk_2b_le3j_4'
p7
F0.060257818871548852
sS'ewk_2b_le3j_3'
p8
F0.25715632539770072
sS'ewk_2b_le3j_2'
p9
F0.53178121606252571
sS'ewk_2b_le3j_1'
p10
F1.5958702185932729
sS'ewk_2b_le3j_0'
p11
F4.0522637971938771
sS'rhoMuonW_2b_le3j_0'
p12
F0.0582155024412363
sS'rhoMuonW_2b_le3j_1'
p13
F0.058259892414348924
sS'rhoMuonW_2b_le3j_2'
p14
F0.067632146666621984
sS'rhoMuonW_2b_le3j_3'
p15
F0.11320736671847254
sS'rhoMuonW_2b_le3j_4'
p16
F0.11320752057907557
sS'rhoMuonW_2b_le3j_5'
p17
F0.15668156990561488
sS'rhoMuonW_2b_le3j_6'
p18
F0.15668156289145907
sS'rhoMuonW_2b_le3j_7'
p19
F0.15668152180412276
ssS'lMax'
p20
F-8.6171714204013199
sS'funcBestFit'
p21
(dp22
S'hadB_2b_le3j_0'
p23
F57.972765244838698
sS'hadB_2b_le3j_1'
p24
F17.8387620031537
sS'hadB_2b_le3j_2'
p25
F3.9741287864000041
sS'hadB_2b_le3j_3'
p26
F0.98364946576426193
sS'hadB_2b_le3j_4'
p27
F0.21376085020846258
sS'hadB_2b_le3j_5'
p28
F0.038684008075228205
sS'hadB_2b_le3j_6'
p29
F0.023593811221829797
sS'hadB_2b_le3j_7'
p30
F0.001297844275178206
sS'qcd_2b_le3j_1'
p31
F0
sS'qcd_2b_le3j_2'
p32
F0
sS'qcd_2b_le3j_3'
p33
F0
sS'qcd_2b_le3j_4'
p34
F0
sS'qcd_2b_le3j_5'
p35
F0
sS'qcd_2b_le3j_6'
p36
F0
sS'qcd_2b_le3j_7'
p37
F0
sS'muonB_2b_le3j_7'
p38
F1.0000004012250336
sS'muonB_2b_le3j_6'
p39
F2.0000004398508633
sS'muonB_2b_le3j_5'
p40
F5.0000005366650146
sS'muonB_2b_le3j_4'
p41
F15.000000866040269
sS'muonB_2b_le3j_3'
p42
F18.000001010945414
sS'muonB_2b_le3j_2'
p43
F75.000002302383976
sS'muonB_2b_le3j_1'
p44
F217.0000010354558
sS'muonB_2b_le3j_0'
p45
F668.0000012282519
ssS'chi2Prob'
p46
F0
sS'parBestFit'
p47
(dp48
g4
F0.001297844275178206
sg5
F0.023593811221829797
sg6
F0.038684008075228205
sg7
F0.21376085020846258
sg8
F0.98364946576426193
sg9
F3.9741287864000041
sg10
F17.8387620031537
sg11
F57.972765244838698
sg12
F1.0000000011720556
sg13
F1.0000000025860125
sg14
F1.0000000049242224
sg15
F1.0000000315992912
sg16
F1.0000000320011215
sg17
F1.0000000340322286
sg18
F1.0000000374986064
sg19
F1.0000000388003496
ss.