(dp1
S'parError'
p2
(dp3
S'ewk_1b_ge2j_2'
p4
F5.5068057123406433
sS'ewk_1b_ge2j_3'
p5
F3.2825896833215555
sS'ewk_1b_ge2j_0'
p6
F17.045871153512792
sS'ewk_1b_ge2j_1'
p7
F9.5271372589703276
sS'ewk_1b_ge2j_6'
p8
F0.84796404786313806
sS'ewk_1b_ge2j_7'
p9
F0.60913848973211171
sS'ewk_1b_ge2j_4'
p10
F1.7412078211378939
sS'ewk_1b_ge2j_5'
p11
F1.4554818316022566
sS'fZinv_1b_ge2j_6'
p12
F0.11212584179048146
sS'fZinv_1b_ge2j_7'
p13
F0.17801837321027991
sS'rhoPhotZ_1b_ge2j_2'
p14
F0.05827473381188425
sS'fZinv_1b_ge2j_5'
p15
F0.10730185806839124
sS'rhoPhotZ_1b_ge2j_4'
p16
F0.122063742409806
sS'rhoPhotZ_1b_ge2j_5'
p17
F0.14822242612795655
sS'rhoPhotZ_1b_ge2j_6'
p18
F0.14821414067099103
sS'rhoPhotZ_1b_ge2j_7'
p19
F0.14814995043624191
sS'rhoMuonW_1b_ge2j_5'
p20
F0.14812792081898352
sS'rhoMuonW_1b_ge2j_4'
p21
F0.12206417113452905
sS'rhoMuonW_1b_ge2j_7'
p22
F0.14811971250156841
sS'rhoMuonW_1b_ge2j_6'
p23
F0.14831510197714021
sS'rhoMuonW_1b_ge2j_1'
p24
F0.039214190250444259
sS'rhoMuonW_1b_ge2j_0'
p25
F0.029557074013588425
sS'rhoMuonW_1b_ge2j_3'
p26
F0.12210418680342999
sS'rhoMuonW_1b_ge2j_2'
p27
F0.058241100987540317
sS'rhoPhotZ_1b_ge2j_0'
p28
F0.029553768275256131
sS'rhoPhotZ_1b_ge2j_1'
p29
F0.039213551564510229
sS'fZinv_1b_ge2j_4'
p30
F0.083828748860094976
sS'rhoPhotZ_1b_ge2j_3'
p31
F0.12206126040636711
sS'fZinv_1b_ge2j_2'
p32
F0.035408105072758489
sS'fZinv_1b_ge2j_3'
p33
F0.063882568777730797
sS'fZinv_1b_ge2j_0'
p34
F0.014814868011581717
sS'fZinv_1b_ge2j_1'
p35
F0.021964373566925682
ssS'lMax'
p36
F-25.568023936799932
sS'funcBestFit'
p37
(dp38
S'ttw_1b_ge2j_6'
p39
F0.83994585127396459
sS'ttw_1b_ge2j_7'
p40
F0.51061029965584126
sS'hadB_1b_ge2j_7'
p41
F1.3365437127754143
sS'hadB_1b_ge2j_6'
p42
F2.6016136599524216
sS'ttw_1b_ge2j_2'
p43
F43.779897763532809
sS'ttw_1b_ge2j_3'
p44
F15.305837454356011
sS'hadB_1b_ge2j_3'
p45
F26.710505269153689
sS'hadB_1b_ge2j_2'
p46
F80.583608653259304
sS'muonB_1b_ge2j_7'
p47
F19.000859458683436
sS'qcd_1b_ge2j_1'
p48
F0
sS'photExp_1b_ge2j_2'
p49
F81.99425771321927
sS'qcd_1b_ge2j_3'
p50
F0
sS'qcd_1b_ge2j_2'
p51
F0
sS'qcd_1b_ge2j_5'
p52
F0
sS'qcd_1b_ge2j_4'
p53
F0
sS'qcd_1b_ge2j_7'
p54
F0
sS'qcd_1b_ge2j_6'
p55
F0
sS'hadB_1b_ge2j_5'
p56
F5.8028827010185458
sS'hadB_1b_ge2j_4'
p57
F10.348321136230659
sS'ttw_1b_ge2j_4'
p58
F5.1794396805460448
sS'ttw_1b_ge2j_5'
p59
F2.387512488586804
sS'hadB_1b_ge2j_1'
p60
F226.23033960621368
sS'hadB_1b_ge2j_0'
p61
F586.45515659578496
sS'ttw_1b_ge2j_0'
p62
F357.61628276199747
sS'ttw_1b_ge2j_1'
p63
F132.53969100487132
sS'zInv_1b_ge2j_5'
p64
F3.4153702124317418
sS'zInv_1b_ge2j_4'
p65
F5.1688814556846143
sS'zInv_1b_ge2j_7'
p66
F0.82593341311957302
sS'zInv_1b_ge2j_6'
p67
F1.761667808678457
sS'zInv_1b_ge2j_1'
p68
F93.69064860134236
sS'zInv_1b_ge2j_0'
p69
F228.83887383378755
sS'zInv_1b_ge2j_3'
p70
F11.404667814797678
sS'zInv_1b_ge2j_2'
p71
F36.803710889726496
sS'photExp_1b_ge2j_3'
p72
F28.006474356465951
sS'photExp_1b_ge2j_1'
p73
F220.94364676973609
sS'photExp_1b_ge2j_0'
p74
F542.10265726724504
sS'photExp_1b_ge2j_7'
p75
F2.0065256429036431
sS'photExp_1b_ge2j_6'
p76
F4.9922428258014904
sS'muonB_1b_ge2j_2'
p77
F710.02913092733786
sS'muonB_1b_ge2j_3'
p78
F339.00911357792421
sS'muonB_1b_ge2j_0'
p79
F3510.054687266354
sS'muonB_1b_ge2j_1'
p80
F1667.9694028303682
sS'muonB_1b_ge2j_6'
p81
F40.989197617401814
sS'photExp_1b_ge2j_5'
p82
F6.989652264527181
sS'muonB_1b_ge2j_4'
p83
F149.0025887333328
sS'muonB_1b_ge2j_5'
p84
F80.001522074881223
sS'photExp_1b_ge2j_4'
p85
F13.009609164038432
ssS'chi2Prob'
p86
F0
sS'parBestFit'
p87
(dp88
g4
F80.583608653259304
sg5
F26.710505269153689
sg6
F586.45515659578496
sg7
F226.23033960621368
sg8
F2.6016136599524216
sg9
F1.3365437127754143
sg10
F10.348321136230659
sg11
F5.8028827010185458
sg12
F0.67714428002760196
sg13
F0.61796214012669448
sg14
F1.0002697985751521
sg15
F0.58856440641687657
sg16
F0.99991746313179408
sg17
F1.0004496504780005
sg18
F1.0004456897207066
sg19
F0.99994396651873285
sg20
F0.99990209701638277
sg21
F0.99994084386114801
sg22
F0.99983683131862511
sg23
F1.0009331421758352
sg24
F1.0000297918866037
sg25
F0.99993895884620287
sg26
F1.0001260467887931
sg27
F0.99980849631326096
sg28
F0.99988450683087526
sg29
F0.99999821865140559
sg30
F0.4994898580783087
sg31
F0.99990768624921533
sg32
F0.45671460368681227
sg33
F0.42697312161923884
sg34
F0.39020694295218733
sg35
F0.41413830154003373
ss.