(dp1
S'parError'
p2
(dp3
S'rhoMuonW_1b_ge4j_7'
p4
F0.18988068817438231
sS'rhoMuonW_1b_ge4j_3'
p5
F0.13098369579605934
sS'rhoMuonW_1b_ge4j_0'
p6
F0.058251211682456616
sS'rhoMuonW_1b_ge4j_6'
p7
F0.13096372947108159
sS'rhoMuonW_1b_ge4j_2'
p8
F0.076947641083029872
sS'ewk_1b_ge4j_4'
p9
F1.3568864823029281
sS'ewk_1b_ge4j_5'
p10
F1.7306199545003054
sS'ewk_1b_ge4j_6'
p11
F0.97259425529977617
sS'ewk_1b_ge4j_7'
p12
F1.155751278053168
sS'ewk_1b_ge4j_0'
p13
F10.712929723163526
sS'ewk_1b_ge4j_1'
p14
F7.144565091876629
sS'ewk_1b_ge4j_2'
p15
F4.1836467817638976
sS'ewk_1b_ge4j_3'
p16
F2.6893051991967276
sS'rhoPhotZ_1b_ge4j_2'
p17
F0.076891981184274316
sS'rhoMuonW_1b_ge4j_5'
p18
F0.1308479428107247
sS'rhoPhotZ_1b_ge4j_3'
p19
F0.13079516624989207
sS'rhoPhotZ_1b_ge4j_0'
p20
F0.058242484750032186
sS'rhoPhotZ_1b_ge4j_1'
p21
F0.058266654786165606
sS'rhoPhotZ_1b_ge4j_6'
p22
F0.13085290169033525
sS'rhoPhotZ_1b_ge4j_7'
p23
F0.19016982620703071
sS'fZinv_1b_ge4j_0'
p24
F0.023687658391562894
sS'fZinv_1b_ge4j_1'
p25
F0.029719447301102292
sS'fZinv_1b_ge4j_2'
p26
F0.050008784244338217
sS'fZinv_1b_ge4j_3'
p27
F0.079113226131457465
sS'fZinv_1b_ge4j_4'
p28
F0.1075470694107718
sS'fZinv_1b_ge4j_5'
p29
F0.15070835076933714
sS'fZinv_1b_ge4j_6'
p30
F0.11390756088484694
sS'fZinv_1b_ge4j_7'
p31
F0.11938382280659521
sS'rhoMuonW_1b_ge4j_4'
p32
F0.13085811736597019
sS'rhoPhotZ_1b_ge4j_5'
p33
F0.13081791810661242
sS'rhoPhotZ_1b_ge4j_4'
p34
F0.13086349394780827
sS'rhoMuonW_1b_ge4j_1'
p35
F0.058255958860323753
ssS'lMax'
p36
F-23.137821162733157
sS'funcBestFit'
p37
(dp38
S'ttw_1b_ge4j_0'
p39
F145.39788214177071
sS'ttw_1b_ge4j_1'
p40
F83.922801325429646
sS'hadB_1b_ge4j_1'
p41
F118.1083554148655
sS'hadB_1b_ge4j_0'
p42
F189.07332531088429
sS'ttw_1b_ge4j_4'
p43
F3.3986894409415593
sS'ttw_1b_ge4j_5'
p44
F2.2589233222087328
sS'hadB_1b_ge4j_5'
p45
F5.1012273992052473
sS'hadB_1b_ge4j_2'
p46
F45.131693567767712
sS'ttw_1b_ge4j_2'
p47
F27.747711160325622
sS'hadB_1b_ge4j_3'
p48
F18.280285243403132
sS'ttw_1b_ge4j_3'
p49
F11.51397543947335
sS'hadB_1b_ge4j_7'
p50
F1.9435708541309276
sS'hadB_1b_ge4j_6'
p51
F2.586462695781667
sS'ttw_1b_ge4j_6'
p52
F0.72802348955018503
sS'photExp_1b_ge4j_1'
p53
F76.996208862645886
sS'photExp_1b_ge4j_0'
p54
F98.025263993223348
sS'photExp_1b_ge4j_3'
p55
F13.008477295780096
sS'hadB_1b_ge4j_4'
p56
F6.4698831335493745
sS'photExp_1b_ge4j_5'
p57
F3.0152515739566037
sS'photExp_1b_ge4j_4'
p58
F6.9920600061026175
sS'photExp_1b_ge4j_7'
p59
F1.9933033684132186
sS'photExp_1b_ge4j_6'
p60
F4.0052637891776719
sS'muonB_1b_ge4j_4'
p61
F86.005149990675505
sS'muonB_1b_ge4j_5'
p62
F55.002765333417443
sS'muonB_1b_ge4j_6'
p63
F25.000686015543266
sS'muonB_1b_ge4j_7'
p64
F11.003417661741407
sS'muonB_1b_ge4j_0'
p65
F1237.9420015860931
sS'muonB_1b_ge4j_1'
p66
F880.96594361837504
sS'muonB_1b_ge4j_2'
p67
F385.01561783948637
sS'muonB_1b_ge4j_3'
p68
F201.99477080558935
sS'qcd_1b_ge4j_3'
p69
F0
sS'qcd_1b_ge4j_2'
p70
F0
sS'qcd_1b_ge4j_1'
p71
F0
sS'qcd_1b_ge4j_7'
p72
F0
sS'qcd_1b_ge4j_6'
p73
F0
sS'qcd_1b_ge4j_5'
p74
F0
sS'qcd_1b_ge4j_4'
p75
F0
sS'zInv_1b_ge4j_3'
p76
F6.766309803929782
sS'zInv_1b_ge4j_2'
p77
F17.38398240744209
sS'zInv_1b_ge4j_1'
p78
F34.185554089435847
sS'zInv_1b_ge4j_0'
p79
F43.675443169113599
sS'zInv_1b_ge4j_7'
p80
F1.590007372612545
sS'zInv_1b_ge4j_6'
p81
F1.8584392062314818
sS'zInv_1b_ge4j_5'
p82
F2.8423040769965144
sS'zInv_1b_ge4j_4'
p83
F3.0711936926078152
sS'ttw_1b_ge4j_7'
p84
F0.35356348151838263
sS'photExp_1b_ge4j_2'
p85
F33.014981829052402
ssS'chi2Prob'
p86
F0
sS'parBestFit'
p87
(dp88
g4
F0.99933302128456092
sg5
F1.0007762508674005
sg6
F1.0000345670700237
sg7
F1.0006729097555338
sg8
F1.000164914022853
sg9
F6.4698831335493745
sg10
F5.1012273992052473
sg11
F2.586462695781667
sg12
F1.9435708541309276
sg13
F189.07332531088429
sg14
F118.1083554148655
sg15
F45.131693567767712
sg16
F18.280285243403132
sg17
F0.99965569708209379
sg18
F0.99998112113673021
sg19
F0.99968511157876694
sg20
F0.99984621543878438
sg21
F1.0001876597907575
sg22
F1.0000229682512036
sg23
F1.0005577668440537
sg24
F0.23099738208602477
sg25
F0.28944230041436292
sg26
F0.38518347159605448
sg27
F0.37014246297778985
sg28
F0.47469075240049352
sg29
F0.55718043023122932
sg30
F0.71852542441940548
sg31
F0.81808562277680408
sg32
F1.0000670825963096
sg33
F0.99975170318559714
sg34
F1.0001651379251861
sg35
F1.0000864135517433
ss.