(dp1
S'parError'
p2
(dp3
S'ewk_2b_le3j_7'
p4
F0.0013118241793613761
sS'ewk_2b_le3j_6'
p5
F0.016858232849554511
sS'ewk_2b_le3j_5'
p6
F0.018156443974633729
sS'ewk_2b_le3j_4'
p7
F0.059106889671620422
sS'ewk_2b_le3j_3'
p8
F0.27024315544761457
sS'ewk_2b_le3j_2'
p9
F0.53861844130032255
sS'ewk_2b_le3j_1'
p10
F1.5028675962417655
sS'ewk_2b_le3j_0'
p11
F3.8400421365404149
sS'rhoMuonW_2b_le3j_0'
p12
F0.050270097601188057
sS'rhoMuonW_2b_le3j_1'
p13
F0.056476783331143976
sS'rhoMuonW_2b_le3j_2'
p14
F0.065873007171955322
sS'rhoMuonW_2b_le3j_3'
p15
F0.10975542919320941
sS'rhoMuonW_2b_le3j_4'
p16
F0.11336607849294311
sS'rhoMuonW_2b_le3j_5'
p17
F0.15676158079478431
sS'rhoMuonW_2b_le3j_6'
p18
F0.15673403202086023
sS'rhoMuonW_2b_le3j_7'
p19
F0.15668500583398548
ssS'lMax'
p20
F-23.355953971952033
sS'funcBestFit'
p21
(dp22
S'hadB_2b_le3j_0'
p23
F62.986043599673678
sS'hadB_2b_le3j_1'
p24
F17.989898770938673
sS'hadB_2b_le3j_2'
p25
F4.2462076693548223
sS'hadB_2b_le3j_3'
p26
F1.1131286645351235
sS'hadB_2b_le3j_4'
p27
F0.21019266553211347
sS'hadB_2b_le3j_5'
p28
F0.038345356791573693
sS'hadB_2b_le3j_6'
p29
F0.023288478576327654
sS'hadB_2b_le3j_7'
p30
F0.0012959817081753533
sS'qcd_2b_le3j_1'
p31
F0
sS'qcd_2b_le3j_2'
p32
F0
sS'qcd_2b_le3j_3'
p33
F0
sS'qcd_2b_le3j_4'
p34
F0
sS'qcd_2b_le3j_5'
p35
F0
sS'qcd_2b_le3j_6'
p36
F0
sS'qcd_2b_le3j_7'
p37
F0
sS'muonB_2b_le3j_7'
p38
F0.99860029540239037
sS'muonB_2b_le3j_6'
p39
F1.9753385447221168
sS'muonB_2b_le3j_5'
p40
F4.9610415254682447
sS'muonB_2b_le3j_4'
p41
F14.789792691062518
sS'muonB_2b_le3j_3'
p42
F19.881247609969044
sS'muonB_2b_le3j_2'
p43
F78.763956596352813
sS'muonB_2b_le3j_1'
p44
F218.05732513590328
sS'muonB_2b_le3j_0'
p45
F684.94764903216344
ssS'chi2Prob'
p46
F0.10304967939733234
sS'parBestFit'
p47
(dp48
g4
F0.0012959817081753533
sg5
F0.023288478576327654
sg6
F0.038345356791573693
sg7
F0.21019266553211347
sg8
F1.1131286645351235
sg9
F4.2462076693548223
sg10
F17.989898770938673
sg11
F62.986043599673678
sg12
F0.94375790735836618
sg13
F0.99643032763569539
sg14
F0.98289461576612314
sg15
F0.97603662007211112
sg16
F1.0027240391364003
sg17
F1.0009710297313528
sg18
F1.0006183115072997
sg19
F1.0000351075106881
ss.