(dp1
S'parError'
p2
(dp3
S'rhoPhotZ_0b_ge4j_4'
p4
F0.12211106989838699
sS'ewk_0b_ge4j_1'
p5
F13.300094673095003
sS'ewk_0b_ge4j_0'
p6
F15.839038592117987
sS'ewk_0b_ge4j_3'
p7
F7.5820046729009647
sS'ewk_0b_ge4j_2'
p8
F9.0419775415907822
sS'ewk_0b_ge4j_5'
p9
F2.49113590023528
sS'ewk_0b_ge4j_4'
p10
F4.1546608862042174
sS'ewk_0b_ge4j_7'
p11
F1.2912993513998114
sS'rhoPhotZ_0b_ge4j_2'
p12
F0.058251927804363557
sS'fZinv_0b_ge4j_3'
p13
F0.049230670929088505
sS'fZinv_0b_ge4j_2'
p14
F0.029452229795972229
sS'fZinv_0b_ge4j_5'
p15
F0.060362011632149493
sS'fZinv_0b_ge4j_4'
p16
F0.054263978052701722
sS'rhoPhotZ_0b_ge4j_5'
p17
F0.12203047227111441
sS'fZinv_0b_ge4j_6'
p18
F0.078726290483745576
sS'rhoPhotZ_0b_ge4j_3'
p19
F0.12211076255284398
sS'fZinv_0b_ge4j_0'
p20
F0.017461034477840948
sS'rhoPhotZ_0b_ge4j_1'
p21
F0.039220340267250575
sS'rhoPhotZ_0b_ge4j_0'
p22
F0.029557873363613152
sS'rhoMuonW_0b_ge4j_6'
p23
F0.12208653237367939
sS'rhoMuonW_0b_ge4j_7'
p24
F0.18180614361526781
sS'rhoMuonW_0b_ge4j_4'
p25
F0.12200951894829332
sS'rhoMuonW_0b_ge4j_5'
p26
F0.12202939940023116
sS'rhoMuonW_0b_ge4j_2'
p27
F0.058252503466464656
sS'rhoMuonW_0b_ge4j_3'
p28
F0.12189028885324094
sS'rhoMuonW_0b_ge4j_0'
p29
F0.029555720766013205
sS'rhoMuonW_0b_ge4j_1'
p30
F0.039213646590208873
sS'ewk_0b_ge4j_6'
p31
F1.9022954258757596
sS'fZinv_0b_ge4j_1'
p32
F0.020183123497586219
sS'rhoPhotZ_0b_ge4j_7'
p33
F0.18176229023662532
sS'rhoPhotZ_0b_ge4j_6'
p34
F0.12204218628151153
sS'fZinv_0b_ge4j_7'
p35
F0.11187635615393898
ssS'lMax'
p36
F-27.143247912004806
sS'funcBestFit'
p37
(dp38
S'ttw_0b_ge4j_5'
p39
F3.7767500664041722
sS'ttw_0b_ge4j_4'
p40
F7.9398320802224545
sS'hadB_0b_ge4j_4'
p41
F26.523693057752958
sS'hadB_0b_ge4j_5'
p42
F13.431327180293284
sS'hadB_0b_ge4j_2'
p43
F137.01832712085456
sS'hadB_0b_ge4j_3'
p44
F65.870628558865164
sS'hadB_0b_ge4j_0'
p45
F448.47920059033584
sS'hadB_0b_ge4j_1'
p46
F294.8098390960642
sS'photExp_0b_ge4j_4'
p47
F31.976723416543003
sS'photExp_0b_ge4j_5'
p48
F21.039554981579442
sS'photExp_0b_ge4j_6'
p49
F7.9911632616593007
sS'photExp_0b_ge4j_7'
p50
F5.0004750671449152
sS'photExp_0b_ge4j_0'
p51
F427.03419987154786
sS'photExp_0b_ge4j_1'
p52
F343.89348964464511
sS'photExp_0b_ge4j_2'
p53
F155.00174179580011
sS'photExp_0b_ge4j_3'
p54
F82.960143097112777
sS'ttw_0b_ge4j_3'
p55
F24.156504668652918
sS'muonB_0b_ge4j_1'
p56
F887.98764644171069
sS'muonB_0b_ge4j_0'
p57
F1248.9071707705859
sS'muonB_0b_ge4j_3'
p58
F307.93238439134711
sS'muonB_0b_ge4j_2'
p59
F561.9961058751984
sS'muonB_0b_ge4j_5'
p60
F80.973501954083105
sS'muonB_0b_ge4j_4'
p61
F161.98013323240065
sS'muonB_0b_ge4j_7'
p62
F28.997700274982432
sS'muonB_0b_ge4j_6'
p63
F46.993506860125962
sS'hadB_0b_ge4j_6'
p64
F6.7148475230577311
sS'hadB_0b_ge4j_7'
p65
F3.6976001652964872
sS'ttw_0b_ge4j_7'
p66
F1.0740052006505292
sS'ttw_0b_ge4j_6'
p67
F1.6941614669634399
sS'ttw_0b_ge4j_1'
p68
F117.11515810224988
sS'ttw_0b_ge4j_0'
p69
F217.32052430836006
sS'qcd_0b_ge4j_6'
p70
F0
sS'qcd_0b_ge4j_7'
p71
F0
sS'qcd_0b_ge4j_4'
p72
F0
sS'qcd_0b_ge4j_5'
p73
F0
sS'qcd_0b_ge4j_2'
p74
F0
sS'qcd_0b_ge4j_3'
p75
F0
sS'qcd_0b_ge4j_1'
p76
F0
sS'ttw_0b_ge4j_2'
p77
F55.119985015391393
sS'zInv_0b_ge4j_6'
p78
F5.0206860560942914
sS'zInv_0b_ge4j_7'
p79
F2.623594964645958
sS'zInv_0b_ge4j_4'
p80
F18.583860977530502
sS'zInv_0b_ge4j_5'
p81
F9.6545771138891112
sS'zInv_0b_ge4j_2'
p82
F81.898342105463172
sS'zInv_0b_ge4j_3'
p83
F41.71412389021225
sS'zInv_0b_ge4j_0'
p84
F231.15867628197577
sS'zInv_0b_ge4j_1'
p85
F177.69468099381433
ssS'chi2Prob'
p86
F0
sS'parBestFit'
p87
(dp88
g4
F1.0004786003146366
sg5
F294.8098390960642
sg6
F448.47920059033584
sg7
F65.870628558865164
sg8
F137.01832712085456
sg9
F13.431327180293284
sg10
F26.523693057752958
sg11
F3.6976001652964872
sg12
F0.99998977291863533
sg13
F0.63327350600479693
sg14
F0.59771815804776396
sg15
F0.71881035911734048
sg16
F0.70065133603626828
sg17
F0.99962499321366183
sg18
F0.74769919031728482
sg19
F1.0007038954596699
sg20
F0.51542786371742599
sg21
F1.0001551669459217
sg22
F1.0000269662214314
sg23
F1.000173758478885
sg24
F0.99998482169630487
sg25
F0.99980904851703678
sg26
F0.99990806328278892
sg27
F1.0000035349058001
sg28
F0.99941258587341752
sg29
F1.0000047088685762
sg30
F0.99998625769216232
sg31
F6.7148475230577311
sg32
F0.60274338719038567
sg33
F0.99978725604004026
sg34
F0.99993880205377883
sg35
F0.70953993059322262
ss.