(dp1
S'parError'
p2
(dp3
S'ewk_2b_le3j_7'
p4
F0.0013120326071497379
sS'ewk_2b_le3j_6'
p5
F0.017043395080675872
sS'ewk_2b_le3j_5'
p6
F0.018225269070527572
sS'ewk_2b_le3j_4'
p7
F0.059513872010499291
sS'ewk_2b_le3j_3'
p8
F0.25346278011795487
sS'ewk_2b_le3j_2'
p9
F0.49811263093001656
sS'ewk_2b_le3j_1'
p10
F1.3982037455400551
sS'ewk_2b_le3j_0'
p11
F2.8237040756834197
sS'rhoMuonW_2b_le3j_0'
p12
F0.029564908219542829
sS'rhoMuonW_2b_le3j_1'
p13
F0.039209768360179864
sS'rhoMuonW_2b_le3j_2'
p14
F0.048781395923209736
sS'rhoMuonW_2b_le3j_3'
p15
F0.10426545130925113
sS'rhoMuonW_2b_le3j_4'
p16
F0.10426546466584569
sS'rhoMuonW_2b_le3j_5'
p17
F0.14814788445705945
sS'rhoMuonW_2b_le3j_6'
p18
F0.14814780991780241
sS'rhoMuonW_2b_le3j_7'
p19
F0.14814779049310434
ssS'lMax'
p20
F-6.8821121799249978
sS'funcBestFit'
p21
(dp22
S'hadB_2b_le3j_0'
p23
F57.972765237452208
sS'hadB_2b_le3j_1'
p24
F17.838761995826893
sS'hadB_2b_le3j_2'
p25
F3.9741287864000041
sS'hadB_2b_le3j_3'
p26
F0.98364946576426193
sS'hadB_2b_le3j_4'
p27
F0.21376084978843968
sS'hadB_2b_le3j_5'
p28
F0.038684007535597642
sS'hadB_2b_le3j_6'
p29
F0.023593810402727233
sS'hadB_2b_le3j_7'
p30
F0.0012978441856636991
sS'qcd_2b_le3j_1'
p31
F0
sS'qcd_2b_le3j_2'
p32
F0
sS'qcd_2b_le3j_3'
p33
F0
sS'qcd_2b_le3j_4'
p34
F0
sS'qcd_2b_le3j_5'
p35
F0
sS'qcd_2b_le3j_6'
p36
F0
sS'qcd_2b_le3j_7'
p37
F0
sS'muonB_2b_le3j_7'
p38
F1.0000003275989886
sS'muonB_2b_le3j_6'
p39
F2.0000003630793128
sS'muonB_2b_le3j_5'
p40
F5.0000004615355476
sS'muonB_2b_le3j_4'
p41
F15.000000841417831
sS'muonB_2b_le3j_3'
p42
F18.00000101752731
sS'muonB_2b_le3j_2'
p43
F75.000002119594853
sS'muonB_2b_le3j_1'
p44
F217.0000006790614
sS'muonB_2b_le3j_0'
p45
F668.00000076627975
ssS'chi2Prob'
p46
F0
sS'parBestFit'
p47
(dp48
g4
F0.0012978441856636991
sg5
F0.023593810402727233
sg6
F0.038684007535597642
sg7
F0.21376084978843968
sg8
F0.98364946576426193
sg9
F3.9741287864000041
sg10
F17.838761995826893
sg11
F57.972765237452208
sg12
F1.0000000006078937
sg13
F1.000000001354366
sg14
F1.0000000024870341
sg15
F1.000000031964952
sg16
F1.0000000323245455
sg17
F1.0000000329560434
sg18
F1.0000000338296791
sg19
F1.0000000341460187
ss.