(dp1
S'parError'
p2
(dp3
S'rhoMuonW_2b_ge4j_4'
p4
F0.13084327243530108
sS'rhoMuonW_2b_ge4j_5'
p5
F0.13084243955239327
sS'rhoMuonW_2b_ge4j_6'
p6
F0.13084115495907855
sS'rhoMuonW_2b_ge4j_7'
p7
F0.19004697410453031
sS'rhoMuonW_2b_ge4j_0'
p8
F0.058252328370366702
sS'rhoMuonW_2b_ge4j_1'
p9
F0.058253226354815724
sS'rhoMuonW_2b_ge4j_2'
p10
F0.076924393966599558
sS'rhoMuonW_2b_ge4j_3'
p11
F0.1308416207413311
sS'ewk_2b_ge4j_3'
p12
F1.0994048317554808
sS'ewk_2b_ge4j_2'
p13
F1.7723179193583949
sS'ewk_2b_ge4j_1'
p14
F3.3421700535503547
sS'ewk_2b_ge4j_0'
p15
F5.1481029393323468
sS'ewk_2b_ge4j_7'
p16
F0.14433680161421991
sS'ewk_2b_ge4j_6'
p17
F0.14898660777658446
sS'ewk_2b_ge4j_5'
p18
F0.2279575441109033
sS'ewk_2b_ge4j_4'
p19
F0.35838608606663658
ssS'lMax'
p20
F-14.119217879520038
sS'funcBestFit'
p21
(dp22
S'qcd_2b_ge4j_4'
p23
F0
sS'qcd_2b_ge4j_5'
p24
F0
sS'qcd_2b_ge4j_6'
p25
F0
sS'qcd_2b_ge4j_7'
p26
F0
sS'qcd_2b_ge4j_1'
p27
F0
sS'qcd_2b_ge4j_2'
p28
F0
sS'qcd_2b_ge4j_3'
p29
F0
sS'hadB_2b_ge4j_4'
p30
F1.9087563606496367
sS'hadB_2b_ge4j_5'
p31
F0.86327478767607158
sS'hadB_2b_ge4j_6'
p32
F0.45357620193225645
sS'hadB_2b_ge4j_7'
p33
F0.37624309392265187
sS'hadB_2b_ge4j_0'
p34
F75.011455222271607
sS'hadB_2b_ge4j_1'
p35
F45.752018560258684
sS'hadB_2b_ge4j_2'
p36
F18.115975868773639
sS'hadB_2b_ge4j_3'
p37
F6.9228314905241106
sS'muonB_2b_ge4j_3'
p38
F123.99999999999997
sS'muonB_2b_ge4j_2'
p39
F274
sS'muonB_2b_ge4j_1'
p40
F515
sS'muonB_2b_ge4j_0'
p41
F760
sS'muonB_2b_ge4j_7'
p42
F8.9999999999999964
sS'muonB_2b_ge4j_6'
p43
F11
sS'muonB_2b_ge4j_5'
p44
F19.000000000000004
sS'muonB_2b_ge4j_4'
p45
F55
ssS'chi2Prob'
p46
F0
sS'parBestFit'
p47
(dp48
g4
F1
sg5
F1
sg6
F1
sg7
F1
sg8
F1
sg9
F1
sg10
F1
sg11
F1
sg12
F6.9228314905241106
sg13
F18.115975868773639
sg14
F45.752018560258684
sg15
F75.011455222271607
sg16
F0.37624309392265187
sg17
F0.45357620193225645
sg18
F0.86327478767607158
sg19
F1.9087563606496367
ss.