(dp1
S'parError'
p2
(dp3
S'rhoPhotZ_0b_ge4j_4'
p4
F0.113507834900475
sS'ewk_0b_ge4j_1'
p5
F10.595751180779445
sS'ewk_0b_ge4j_0'
p6
F12.851360163591153
sS'ewk_0b_ge4j_3'
p7
F5.5485308419146087
sS'ewk_0b_ge4j_2'
p8
F7.5039647918163297
sS'ewk_0b_ge4j_5'
p9
F2.1245089348393185
sS'ewk_0b_ge4j_4'
p10
F3.2965253146656899
sS'ewk_0b_ge4j_7'
p11
F0.94807216868576827
sS'rhoPhotZ_0b_ge4j_2'
p12
F0.053630633014238649
sS'fZinv_0b_ge4j_3'
p13
F0.047152180387350584
sS'fZinv_0b_ge4j_2'
p14
F0.028121153134180732
sS'fZinv_0b_ge4j_5'
p15
F0.05482894078261985
sS'fZinv_0b_ge4j_4'
p16
F0.049174251049405149
sS'rhoPhotZ_0b_ge4j_5'
p17
F0.11620679864731576
sS'fZinv_0b_ge4j_6'
p18
F0.071584141026515669
sS'rhoPhotZ_0b_ge4j_3'
p19
F0.10846996452409713
sS'fZinv_0b_ge4j_0'
p20
F0.017141235489864959
sS'rhoPhotZ_0b_ge4j_1'
p21
F0.036983429285678437
sS'rhoPhotZ_0b_ge4j_0'
p22
F0.028386740722387505
sS'rhoMuonW_0b_ge4j_6'
p23
F0.12196297130379025
sS'rhoMuonW_0b_ge4j_7'
p24
F0.18251373896516632
sS'rhoMuonW_0b_ge4j_4'
p25
F0.12052970180486622
sS'rhoMuonW_0b_ge4j_5'
p26
F0.12112788478444991
sS'rhoMuonW_0b_ge4j_2'
p27
F0.056338015145733777
sS'rhoMuonW_0b_ge4j_3'
p28
F0.11757411694800191
sS'rhoMuonW_0b_ge4j_0'
p29
F0.028565061700555505
sS'rhoMuonW_0b_ge4j_1'
p30
F0.038260198024301528
sS'ewk_0b_ge4j_6'
p31
F1.4915109015886276
sS'fZinv_0b_ge4j_1'
p32
F0.019482474407664818
sS'rhoPhotZ_0b_ge4j_7'
p33
F0.18307134240602513
sS'rhoPhotZ_0b_ge4j_6'
p34
F0.12051944389628139
sS'fZinv_0b_ge4j_7'
p35
F0.11178846839005646
ssS'lMax'
p36
F-51.146170279433484
sS'funcBestFit'
p37
(dp38
S'ttw_0b_ge4j_5'
p39
F3.8082409846744412
sS'ttw_0b_ge4j_4'
p40
F7.9824998462389445
sS'hadB_0b_ge4j_4'
p41
F27.123241952694265
sS'hadB_0b_ge4j_5'
p42
F13.928086599163509
sS'hadB_0b_ge4j_2'
p43
F145.01506707059605
sS'hadB_0b_ge4j_3'
p44
F65.95391849270527
sS'hadB_0b_ge4j_0'
p45
F456.24259780044127
sS'hadB_0b_ge4j_1'
p46
F297.59615617864239
sS'photExp_0b_ge4j_4'
p47
F32.620101161525717
sS'photExp_0b_ge4j_5'
p48
F21.803833346029478
sS'photExp_0b_ge4j_6'
p49
F7.6563599325084217
sS'photExp_0b_ge4j_7'
p50
F4.1990479590058616
sS'photExp_0b_ge4j_0'
p51
F434.17113272290197
sS'photExp_0b_ge4j_1'
p52
F346.6636232131853
sS'photExp_0b_ge4j_2'
p53
F162.92810496406597
sS'photExp_0b_ge4j_3'
p54
F83.012292938448468
sS'ttw_0b_ge4j_3'
p55
F24.177815215939759
sS'muonB_0b_ge4j_1'
p56
F889.78646580211591
sS'muonB_0b_ge4j_0'
p57
F1255.5925120077156
sS'muonB_0b_ge4j_3'
p58
F308.04806442572647
sS'muonB_0b_ge4j_2'
p59
F567.05485571853615
sS'muonB_0b_ge4j_5'
p60
F81.295769413593689
sS'muonB_0b_ge4j_4'
p61
F162.25799947779217
sS'muonB_0b_ge4j_7'
p62
F28.610720017468719
sS'muonB_0b_ge4j_6'
p63
F46.872171791695436
sS'hadB_0b_ge4j_6'
p64
F6.472057355141569
sS'hadB_0b_ge4j_7'
p65
F3.1909683083420548
sS'ttw_0b_ge4j_7'
p66
F1.0459978904857608
sS'ttw_0b_ge4j_6'
p67
F1.6865579751772548
sS'ttw_0b_ge4j_1'
p68
F117.69132343462969
sS'ttw_0b_ge4j_0'
p69
F219.74369202322654
sS'qcd_0b_ge4j_6'
p70
F0
sS'qcd_0b_ge4j_7'
p71
F0
sS'qcd_0b_ge4j_4'
p72
F0
sS'qcd_0b_ge4j_5'
p73
F0
sS'qcd_0b_ge4j_2'
p74
F0
sS'qcd_0b_ge4j_3'
p75
F0
sS'qcd_0b_ge4j_1'
p76
F0
sS'ttw_0b_ge4j_2'
p77
F56.580021485809596
sS'zInv_0b_ge4j_6'
p78
F4.785499379964314
sS'zInv_0b_ge4j_7'
p79
F2.1449704178562938
sS'zInv_0b_ge4j_4'
p80
F19.14074210645532
sS'zInv_0b_ge4j_5'
p81
F10.119845614489067
sS'zInv_0b_ge4j_2'
p82
F88.435045584786451
sS'zInv_0b_ge4j_3'
p83
F41.776103276765511
sS'zInv_0b_ge4j_0'
p84
F236.49890577721473
sS'zInv_0b_ge4j_1'
p85
F179.90483274401271
ssS'chi2Prob'
p86
F0.9010808592442906
sS'parBestFit'
p87
(dp88
g4
F0.99091481814305094
sg5
F297.59615617864239
sg6
F456.24259780044127
sg7
F65.95391849270527
sg8
F145.01506707059605
sg9
F13.928086599163509
sg10
F27.123241952694265
sg11
F3.1909683083420548
sg12
F0.9734321648405061
sg13
F0.63341351403383395
sg14
F0.60983349779602292
sg15
F0.72657830940660895
sg16
F0.70569521666468749
sg17
F0.98830906548160313
sg18
F0.7394092971321693
sg19
F0.99984736495265869
sg20
F0.51836217599448797
sg21
F0.99582562796403884
sg22
F0.99378185090798787
sg23
F1.0020887866790975
sg24
F1.0130577762935853
sg25
F0.99617084480293427
sg26
F0.99558631212342175
sg27
F0.98296778613859725
sg28
F0.99890680989073344
sg29
F0.99427136057893606
sg30
F0.99710654248399422
sg31
F6.472057355141569
sg32
F0.60452673533867352
sg33
F1.0268869791019555
sg34
F1.0051284389719015
sg35
F0.67220047665429983
ss.