(dp1
S'parError'
p2
(dp3
S'rhoMuonW_1b_le3j_7'
p4
F0.15695094380744279
sS'rhoMuonW_1b_le3j_6'
p5
F0.1565346581003802
sS'rhoMuonW_1b_le3j_5'
p6
F0.15653667443117669
sS'rhoMuonW_1b_le3j_4'
p7
F0.11311200681645889
sS'rhoMuonW_1b_le3j_3'
p8
F0.11103782256601669
sS'rhoMuonW_1b_le3j_2'
p9
F0.066774669409607024
sS'rhoMuonW_1b_le3j_1'
p10
F0.056419651514412861
sS'rhoMuonW_1b_le3j_0'
p11
F0.050367369555648855
sS'fZinv_1b_le3j_4'
p12
F0.10627757578421571
sS'fZinv_1b_le3j_5'
p13
F0.078741724670865265
sS'fZinv_1b_le3j_6'
p14
F0.12192244823709258
sS'fZinv_1b_le3j_7'
p15
F0.82532386734043639
sS'fZinv_1b_le3j_0'
p16
F0.024856745132368685
sS'fZinv_1b_le3j_1'
p17
F0.029476208368445334
sS'fZinv_1b_le3j_2'
p18
F0.042014525049019424
sS'fZinv_1b_le3j_3'
p19
F0.067397981201934187
sS'ewk_1b_le3j_0'
p20
F14.201704878174297
sS'ewk_1b_le3j_1'
p21
F5.8521294879766828
sS'ewk_1b_le3j_2'
p22
F3.0127510581482468
sS'ewk_1b_le3j_3'
p23
F1.5672429841833768
sS'ewk_1b_le3j_4'
p24
F0.82366249816566861
sS'ewk_1b_le3j_5'
p25
F0.5993380016408596
sS'ewk_1b_le3j_6'
p26
F0.3130158084659973
sS'ewk_1b_le3j_7'
p27
F0.046748184784391467
sS'rhoPhotZ_1b_le3j_6'
p28
F0.15464862314961203
sS'rhoPhotZ_1b_le3j_7'
p29
F0.15668677997357655
sS'rhoPhotZ_1b_le3j_4'
p30
F0.11298563938898937
sS'rhoPhotZ_1b_le3j_5'
p31
F0.15397088568821921
sS'rhoPhotZ_1b_le3j_2'
p32
F0.066094542193506911
sS'rhoPhotZ_1b_le3j_3'
p33
F0.10714853568564292
sS'rhoPhotZ_1b_le3j_0'
p34
F0.051877715028999072
sS'rhoPhotZ_1b_le3j_1'
p35
F0.055481461375286645
ssS'lMax'
p36
F-41.068366181372028
sS'funcBestFit'
p37
(dp38
S'ttw_1b_le3j_4'
p39
F1.635063671231648
sS'ttw_1b_le3j_5'
p40
F0.30132034578045319
sS'hadB_1b_le3j_5'
p41
F1.6270363975406577
sS'hadB_1b_le3j_4'
p42
F3.6560184081680269
sS'ttw_1b_le3j_0'
p43
F219.47228574546853
sS'ttw_1b_le3j_1'
p44
F49.983782183873288
sS'ttw_1b_le3j_2'
p45
F15.358456645276052
sS'hadB_1b_le3j_0'
p46
F412.9925190874506
sS'ttw_1b_le3j_6'
p47
F0.086940259431826761
sS'muonB_1b_le3j_0'
p48
F2286.3301424154238
sS'muonB_1b_le3j_1'
p49
F789.36956880251159
sS'muonB_1b_le3j_2'
p50
F325.53875055676792
sS'ttw_1b_le3j_7'
p51
F0.12119177061158834
sS'muonB_1b_le3j_4'
p52
F62.690093898213576
sS'muonB_1b_le3j_5'
p53
F25.066243663020362
sS'muonB_1b_le3j_6'
p54
F16.089713601267317
sS'muonB_1b_le3j_7'
p55
F7.8777739854578597
sS'hadB_1b_le3j_3'
p56
F10.088190132633354
sS'hadB_1b_le3j_2'
p57
F35.789506879868078
sS'hadB_1b_le3j_1'
p58
F110.78287221866982
sS'hadB_1b_le3j_6'
p59
F0.48750715472264172
sS'ttw_1b_le3j_3'
p60
F3.6581494359494853
sS'qcd_1b_le3j_7'
p61
F0
sS'qcd_1b_le3j_6'
p62
F0
sS'qcd_1b_le3j_5'
p63
F0
sS'qcd_1b_le3j_4'
p64
F0
sS'qcd_1b_le3j_3'
p65
F0
sS'qcd_1b_le3j_2'
p66
F0
sS'qcd_1b_le3j_1'
p67
F0
sS'photExp_1b_le3j_5'
p68
F4.3024766302359234
sS'photExp_1b_le3j_4'
p69
F5.6410722777181084
sS'photExp_1b_le3j_7'
p70
F3.3790001603107247e-10
sS'photExp_1b_le3j_6'
p71
F1.4256728432314556
sS'photExp_1b_le3j_1'
p72
F146.87549237525528
sS'photExp_1b_le3j_0'
p73
F456.64122655380726
sS'photExp_1b_le3j_3'
p74
F18.126442127443671
sS'photExp_1b_le3j_2'
p75
F49.699900395078423
sS'zInv_1b_le3j_7'
p76
F9.1906511872143712e-11
sS'zInv_1b_le3j_6'
p77
F0.40056689529081496
sS'zInv_1b_le3j_5'
p78
F1.3257160517602045
sS'zInv_1b_le3j_4'
p79
F2.0209547369363792
sS'zInv_1b_le3j_3'
p80
F6.4300406966838688
sS'zInv_1b_le3j_2'
p81
F20.431050234592028
sS'zInv_1b_le3j_1'
p82
F60.799090034796535
sS'zInv_1b_le3j_0'
p83
F193.52023334198208
sS'hadB_1b_le3j_7'
p84
F0.12119177070349485
sS'muonB_1b_le3j_3'
p85
F138.78859667196136
ssS'chi2Prob'
p86
F0.43875375811295048
sS'parBestFit'
p87
(dp88
g4
F1.0030871344630363
sg5
F0.99809099731255746
sg6
F0.99874925742940901
sg7
F1.0041851523434913
sg8
F0.97755885996479808
sg9
F0.99764080533383215
sg10
F0.9921718748639945
sg11
F0.95199729023767587
sg12
F0.55277477061420144
sg13
F0.81480417633194124
sg14
F0.82166362362150391
sg15
F7.5835604462781703e-10
sg16
F0.46858048123870361
sg17
F0.54881308651022942
sg18
F0.57086705059031362
sg19
F0.63738298070770139
sg20
F412.9925190874506
sg21
F110.78287221866982
sg22
F35.789506879868078
sg23
F10.088190132633354
sg24
F3.6560184081680269
sg25
F1.6270363975406577
sg26
F0.48750715472264172
sg27
F0.12119177070349485
sg28
F0.98956606242079537
sg29
F1.0000249436983442
sg30
F1.0046321504772087
sg31
F0.99256471071044872
sg32
F0.99680046354213014
sg33
F0.96063230444038417
sg34
F0.95800165541872417
sg35
F0.9902912732855671
ss.