(dp1
S'parError'
p2
(dp3
S'rhoMuonW_1b_ge4j_7'
p4
F0.18174746810023112
sS'rhoMuonW_1b_ge4j_3'
p5
F0.12215529558635402
sS'rhoMuonW_1b_ge4j_0'
p6
F0.029555177231017415
sS'rhoMuonW_1b_ge4j_6'
p7
F0.12201722185826558
sS'rhoMuonW_1b_ge4j_2'
p8
F0.058240666778960115
sS'ewk_1b_ge4j_4'
p9
F1.3380571576642852
sS'ewk_1b_ge4j_5'
p10
F1.7203133733534821
sS'ewk_1b_ge4j_6'
p11
F0.96643848521649189
sS'ewk_1b_ge4j_7'
p12
F1.1513957769893546
sS'ewk_1b_ge4j_0'
p13
F7.5270699178956448
sS'ewk_1b_ge4j_1'
p14
F5.9855878117034749
sS'ewk_1b_ge4j_2'
p15
F3.8455968519895194
sS'ewk_1b_ge4j_3'
p16
F2.6120181790335479
sS'rhoPhotZ_1b_ge4j_2'
p17
F0.058243557055044581
sS'rhoMuonW_1b_ge4j_5'
p18
F0.12205881422069997
sS'rhoPhotZ_1b_ge4j_3'
p19
F0.12206838365693401
sS'rhoPhotZ_1b_ge4j_0'
p20
F0.029559376280184901
sS'rhoPhotZ_1b_ge4j_1'
p21
F0.039215675326577326
sS'rhoPhotZ_1b_ge4j_6'
p22
F0.12205916172532894
sS'rhoPhotZ_1b_ge4j_7'
p23
F0.1818891617486641
sS'fZinv_1b_ge4j_0'
p24
F0.020053503923405519
sS'fZinv_1b_ge4j_1'
p25
F0.026960688469082034
sS'fZinv_1b_ge4j_2'
p26
F0.04709798243513913
sS'fZinv_1b_ge4j_3'
p27
F0.07755694396075663
sS'fZinv_1b_ge4j_4'
p28
F0.10627020259919354
sS'fZinv_1b_ge4j_5'
p29
F0.14984652772196214
sS'fZinv_1b_ge4j_6'
p30
F0.11323142454789836
sS'fZinv_1b_ge4j_7'
p31
F0.11906030761972719
sS'rhoMuonW_1b_ge4j_4'
p32
F0.12206717628931063
sS'rhoPhotZ_1b_ge4j_5'
p33
F0.12204152299353033
sS'rhoPhotZ_1b_ge4j_4'
p34
F0.12208818068067351
sS'rhoMuonW_1b_ge4j_1'
p35
F0.039214436707451172
ssS'lMax'
p36
F-19.786350485450182
sS'funcBestFit'
p37
(dp38
S'ttw_1b_ge4j_0'
p39
F145.39458031128419
sS'ttw_1b_ge4j_1'
p40
F83.936126822303919
sS'hadB_1b_ge4j_1'
p41
F118.14693481410919
sS'hadB_1b_ge4j_0'
p42
F189.06264636465707
sS'ttw_1b_ge4j_4'
p43
F3.398146112941018
sS'ttw_1b_ge4j_5'
p44
F2.2587785255428381
sS'hadB_1b_ge4j_5'
p45
F5.0982928523702755
sS'hadB_1b_ge4j_2'
p46
F45.134655442626027
sS'ttw_1b_ge4j_2'
p47
F27.755859725850978
sS'hadB_1b_ge4j_3'
p48
F18.270300794761827
sS'ttw_1b_ge4j_3'
p49
F11.515153570325458
sS'hadB_1b_ge4j_7'
p50
F1.9407325463772569
sS'hadB_1b_ge4j_6'
p51
F2.583834220784226
sS'ttw_1b_ge4j_6'
p52
F0.72852080211455306
sS'photExp_1b_ge4j_1'
p53
F77.036716121035937
sS'photExp_1b_ge4j_0'
p54
F98.029744962943639
sS'photExp_1b_ge4j_3'
p55
F12.992148240569209
sS'hadB_1b_ge4j_4'
p56
F6.4653398669668283
sS'photExp_1b_ge4j_5'
p57
F3.0123860579514834
sS'photExp_1b_ge4j_4'
p58
F6.9835227808749565
sS'photExp_1b_ge4j_7'
p59
F1.9894646340780413
sS'photExp_1b_ge4j_6'
p60
F3.998393773091713
sS'muonB_1b_ge4j_4'
p61
F85.992666012199251
sS'muonB_1b_ge4j_5'
p62
F54.997416280151256
sS'muonB_1b_ge4j_6'
p63
F24.994606882650345
sS'muonB_1b_ge4j_7'
p64
F11.005747593260139
sS'muonB_1b_ge4j_0'
p65
F1237.8745058787406
sS'muonB_1b_ge4j_1'
p66
F880.99520288558892
sS'muonB_1b_ge4j_2'
p67
F385.00265083666477
sS'muonB_1b_ge4j_3'
p68
F201.98525330598127
sS'qcd_1b_ge4j_3'
p69
F0
sS'qcd_1b_ge4j_2'
p70
F0
sS'qcd_1b_ge4j_1'
p71
F0
sS'qcd_1b_ge4j_7'
p72
F0
sS'qcd_1b_ge4j_6'
p73
F0
sS'qcd_1b_ge4j_5'
p74
F0
sS'qcd_1b_ge4j_4'
p75
F0
sS'zInv_1b_ge4j_3'
p76
F6.7551472244363691
sS'zInv_1b_ge4j_2'
p77
F17.378795716775048
sS'zInv_1b_ge4j_1'
p78
F34.210807991805268
sS'zInv_1b_ge4j_0'
p79
F43.66806605337289
sS'zInv_1b_ge4j_7'
p80
F1.5872085147889297
sS'zInv_1b_ge4j_6'
p81
F1.8553134186696729
sS'zInv_1b_ge4j_5'
p82
F2.8395143268274374
sS'zInv_1b_ge4j_4'
p83
F3.0671937540258107
sS'ttw_1b_ge4j_7'
p84
F0.35352403158832724
sS'photExp_1b_ge4j_2'
p85
F33.012175235397663
ssS'chi2Prob'
p86
F0
sS'parBestFit'
p87
(dp88
g4
F0.99965616592512174
sg5
F1.0006267107978473
sg6
F1.0000027516671497
sg7
F0.99974666093068709
sg8
F0.9998376107736191
sg9
F6.4653398669668283
sg10
F5.0982928523702755
sg11
F2.583834220784226
sg12
F1.9407325463772569
sg13
F189.06264636465707
sg14
F118.14693481410919
sg15
F45.134655442626027
sg16
F18.270300794761827
sg17
F0.99986903790518777
sg18
F0.99994796887199267
sg19
F1.0000801056790334
sg20
F1.0000608387147389
sg21
F0.99997514084108574
sg22
F0.99998960685356431
sg23
F1.0003918468195823
sg24
F0.23097141023376733
sg25
F0.2895615366207519
sg26
F0.38504327874766897
sg27
F0.36973377178185807
sg28
F0.47440564875745111
sg29
F0.55695394694859535
sg30
F0.71804661605053055
sg31
F0.81783990161434328
sg32
F1.0000817960612067
sg33
F0.9997828955605087
sg34
F1.0002466741932525
sg35
F0.99996085255463607
ss.