(dp1
S'parError'
p2
(dp3
S'rhoMuonW_2b_ge2j_6'
p4
F0.14814838426581123
sS'rhoMuonW_2b_ge2j_7'
p5
F0.14814901244926715
sS'rhoMuonW_2b_ge2j_4'
p6
F0.12206653130278466
sS'rhoMuonW_2b_ge2j_5'
p7
F0.14815029860857309
sS'rhoMuonW_2b_ge2j_2'
p8
F0.058254813957834828
sS'rhoMuonW_2b_ge2j_3'
p9
F0.12207067371780855
sS'rhoMuonW_2b_ge2j_0'
p10
F0.029550775133237173
sS'rhoMuonW_2b_ge2j_1'
p11
F0.039213540728243901
sS'ewk_2b_ge2j_1'
p12
F3.3897391643016874
sS'ewk_2b_ge2j_0'
p13
F5.2864896199056659
sS'ewk_2b_ge2j_3'
p14
F1.1704673435726121
sS'ewk_2b_ge2j_2'
p15
F1.7312835909899373
sS'ewk_2b_ge2j_5'
p16
F0.23945098846262836
sS'ewk_2b_ge2j_4'
p17
F0.37593680092318515
sS'ewk_2b_ge2j_7'
p18
F0.12246666883748009
sS'ewk_2b_ge2j_6'
p19
F0.15279961741557324
ssS'lMax'
p20
F-13.676171021334293
sS'funcBestFit'
p21
(dp22
S'hadB_2b_ge2j_6'
p23
F0.48615488123469219
sS'hadB_2b_ge2j_7'
p24
F0.35083632019115907
sS'hadB_2b_ge2j_4'
p25
F2.202152997029291
sS'hadB_2b_ge2j_5'
p26
F0.94926075908860597
sS'hadB_2b_ge2j_2'
p27
F21.881009935087864
sS'hadB_2b_ge2j_3'
p28
F7.8962323821798934
sS'hadB_2b_ge2j_0'
p29
F133.27455958702188
sS'hadB_2b_ge2j_1'
p30
F62.907867690506038
sS'muonB_2b_ge2j_1'
p31
F731.99999999999977
sS'muonB_2b_ge2j_0'
p32
F1428
sS'muonB_2b_ge2j_3'
p33
F142
sS'muonB_2b_ge2j_2'
p34
F349.00000000000006
sS'muonB_2b_ge2j_5'
p35
F23.999999999999996
sS'muonB_2b_ge2j_4'
p36
F70
sS'muonB_2b_ge2j_7'
p37
F10.000000000000005
sS'muonB_2b_ge2j_6'
p38
F12.999999999999996
sS'qcd_2b_ge2j_2'
p39
F0
sS'qcd_2b_ge2j_3'
p40
F0
sS'qcd_2b_ge2j_1'
p41
F0
sS'qcd_2b_ge2j_6'
p42
F0
sS'qcd_2b_ge2j_7'
p43
F0
sS'qcd_2b_ge2j_4'
p44
F0
sS'qcd_2b_ge2j_5'
p45
F0
ssS'chi2Prob'
p46
F0
sS'parBestFit'
p47
(dp48
g4
F1
sg5
F1
sg6
F1
sg7
F1
sg8
F1
sg9
F1
sg10
F1
sg11
F1
sg12
F62.907867690506038
sg13
F133.27455958702188
sg14
F7.8962323821798934
sg15
F21.881009935087864
sg16
F0.94926075908860597
sg17
F2.202152997029291
sg18
F0.35083632019115907
sg19
F0.48615488123469219
ss.