(dp1
S'parError'
p2
(dp3
S'ewk_2b_le3j_7'
p4
F0.0013103706340769627
sS'ewk_2b_le3j_6'
p5
F0.016838476328719099
sS'ewk_2b_le3j_5'
p6
F0.018059526181268548
sS'ewk_2b_le3j_4'
p7
F0.058429778366927143
sS'ewk_2b_le3j_3'
p8
F0.26555963410158256
sS'ewk_2b_le3j_2'
p9
F0.50136341036018939
sS'ewk_2b_le3j_1'
p10
F1.3336243082473356
sS'ewk_2b_le3j_0'
p11
F2.740286203809859
sS'rhoMuonW_2b_le3j_0'
p12
F0.028381155745046516
sS'rhoMuonW_2b_le3j_1'
p13
F0.038662478420202206
sS'rhoMuonW_2b_le3j_2'
p14
F0.048117727277477595
sS'rhoMuonW_2b_le3j_3'
p15
F0.10156845015405125
sS'rhoMuonW_2b_le3j_4'
p16
F0.10438301959013108
sS'rhoMuonW_2b_le3j_5'
p17
F0.14820789547483959
sS'rhoMuonW_2b_le3j_6'
p18
F0.14818190401355225
sS'rhoMuonW_2b_le3j_7'
p19
F0.14815007423130772
ssS'lMax'
p20
F-22.056029457353269
sS'funcBestFit'
p21
(dp22
S'hadB_2b_le3j_0'
p23
F60.665889248309355
sS'hadB_2b_le3j_1'
p24
F17.955344132167504
sS'hadB_2b_le3j_2'
p25
F4.2118256542870336
sS'hadB_2b_le3j_3'
p26
F1.1100342819652158
sS'hadB_2b_le3j_4'
p27
F0.21031138367966828
sS'hadB_2b_le3j_5'
p28
F0.038363896377923146
sS'hadB_2b_le3j_6'
p29
F0.023325464380809513
sS'hadB_2b_le3j_7'
p30
F0.001296264426662308
sS'qcd_2b_le3j_1'
p31
F0
sS'qcd_2b_le3j_2'
p32
F0
sS'qcd_2b_le3j_3'
p33
F0
sS'qcd_2b_le3j_4'
p34
F0
sS'qcd_2b_le3j_5'
p35
F0
sS'qcd_2b_le3j_6'
p36
F0
sS'qcd_2b_le3j_7'
p37
F0
sS'muonB_2b_le3j_7'
p38
F0.99880907007896824
sS'muonB_2b_le3j_6'
p39
F1.9781903862802428
sS'muonB_2b_le3j_5'
p40
F4.9626649955055484
sS'muonB_2b_le3j_4'
p41
F14.791230675699808
sS'muonB_2b_le3j_3'
p42
F19.898458817582547
sS'muonB_2b_le3j_2'
p43
F78.777002066731825
sS'muonB_2b_le3j_1'
p44
F218.06340725251562
sS'muonB_2b_le3j_0'
p45
F687.35573656987901
ssS'chi2Prob'
p46
F0.071423324115046732
sS'parBestFit'
p47
(dp48
g4
F0.001296264426662308
sg5
F0.023325464380809513
sg6
F0.038363896377923146
sg7
F0.21031138367966828
sg8
F1.1100342819652158
sg9
F4.2118256542870336
sg10
F17.955344132167504
sg11
F60.665889248309355
sg12
F0.98329662195913414
sg13
F0.99837578064032084
sg14
F0.99108231361822674
sg15
F0.97960477550868919
sg16
F1.0022554519491806
sg17
F1.0008147076494134
sg18
F1.0004740154009373
sg19
F1.0000260264222485
ss.