(dp1
S'parError'
p2
(dp3
S'rhoMuonW_1b_ge4j_7'
p4
F0.1912139306360458
sS'rhoMuonW_1b_ge4j_3'
p5
F0.1281973909847326
sS'rhoMuonW_1b_ge4j_0'
p6
F0.050341137079044695
sS'rhoMuonW_1b_ge4j_6'
p7
F0.13077744851340423
sS'rhoMuonW_1b_ge4j_2'
p8
F0.074225860474290417
sS'ewk_1b_ge4j_4'
p9
F1.2626692087420421
sS'ewk_1b_ge4j_5'
p10
F1.4531002539695543
sS'ewk_1b_ge4j_6'
p11
F0.79355632645374141
sS'ewk_1b_ge4j_7'
p12
F0.63029592467465534
sS'ewk_1b_ge4j_0'
p13
F8.5401712127221998
sS'ewk_1b_ge4j_1'
p14
F6.1342502594173212
sS'ewk_1b_ge4j_2'
p15
F3.5272980091758761
sS'ewk_1b_ge4j_3'
p16
F2.1495016443997734
sS'rhoPhotZ_1b_ge4j_2'
p17
F0.075932146742246687
sS'rhoMuonW_1b_ge4j_5'
p18
F0.12997048663115207
sS'rhoPhotZ_1b_ge4j_3'
p19
F0.130919758857446
sS'rhoPhotZ_1b_ge4j_0'
p20
F0.057512877905127657
sS'rhoPhotZ_1b_ge4j_1'
p21
F0.057179297252217043
sS'rhoPhotZ_1b_ge4j_6'
p22
F0.13045015719381603
sS'rhoPhotZ_1b_ge4j_7'
p23
F0.19450802238885623
sS'fZinv_1b_ge4j_0'
p24
F0.023763235915239406
sS'fZinv_1b_ge4j_1'
p25
F0.030053844065946994
sS'fZinv_1b_ge4j_2'
p26
F0.048483692424743541
sS'fZinv_1b_ge4j_3'
p27
F0.075143363835324745
sS'fZinv_1b_ge4j_4'
p28
F0.10159570789856118
sS'fZinv_1b_ge4j_5'
p29
F0.12435528616204214
sS'fZinv_1b_ge4j_6'
p30
F0.10888621863411968
sS'fZinv_1b_ge4j_7'
p31
F0.15766956169306262
sS'rhoMuonW_1b_ge4j_4'
p32
F0.12849956554248476
sS'rhoPhotZ_1b_ge4j_5'
p33
F0.12892490157296504
sS'rhoPhotZ_1b_ge4j_4'
p34
F0.1283600617310216
sS'rhoMuonW_1b_ge4j_1'
p35
F0.052924628054015876
ssS'lMax'
p36
F-42.98335863690864
sS'funcBestFit'
p37
(dp38
S'ttw_1b_ge4j_0'
p39
F147.45528453545458
sS'ttw_1b_ge4j_1'
p40
F86.562933021067792
sS'hadB_1b_ge4j_1'
p41
F122.35232158412352
sS'hadB_1b_ge4j_0'
p42
F191.69828641815499
sS'ttw_1b_ge4j_4'
p43
F3.4581823944739756
sS'ttw_1b_ge4j_5'
p44
F2.278158523003178
sS'hadB_1b_ge4j_5'
p45
F5.4274938466298552
sS'hadB_1b_ge4j_2'
p46
F44.791838993761019
sS'ttw_1b_ge4j_2'
p47
F27.62899986882984
sS'hadB_1b_ge4j_3'
p48
F17.094828588855204
sS'ttw_1b_ge4j_3'
p49
F11.026615580029269
sS'hadB_1b_ge4j_7'
p50
F1.2079938683666596
sS'hadB_1b_ge4j_6'
p51
F2.4343348201607471
sS'ttw_1b_ge4j_6'
p52
F0.72383558904591216
sS'photExp_1b_ge4j_1'
p53
F79.828873820669486
sS'photExp_1b_ge4j_0'
p54
F98.988076510486266
sS'photExp_1b_ge4j_3'
p55
F11.893239531429311
sS'hadB_1b_ge4j_4'
p56
F6.8228724969895138
sS'photExp_1b_ge4j_5'
p57
F3.3232393971219762
sS'photExp_1b_ge4j_4'
p58
F7.5822888268445636
sS'photExp_1b_ge4j_7'
p59
F1.1249536130503961
sS'photExp_1b_ge4j_6'
p60
F3.7050088742045721
sS'muonB_1b_ge4j_4'
p61
F86.615434336971646
sS'muonB_1b_ge4j_5'
p62
F55.260766966474613
sS'muonB_1b_ge4j_6'
p63
F24.884768065920571
sS'muonB_1b_ge4j_7'
p64
F10.668241241737846
sS'muonB_1b_ge4j_0'
p65
F1241.2472927196698
sS'muonB_1b_ge4j_1'
p66
F887.83534902284021
sS'muonB_1b_ge4j_2'
p67
F384.4695732477856
sS'muonB_1b_ge4j_3'
p68
F200.03356544463452
sS'qcd_1b_ge4j_3'
p69
F0
sS'qcd_1b_ge4j_2'
p70
F0
sS'qcd_1b_ge4j_1'
p71
F0
sS'qcd_1b_ge4j_7'
p72
F0
sS'qcd_1b_ge4j_6'
p73
F0
sS'qcd_1b_ge4j_5'
p74
F0
sS'qcd_1b_ge4j_4'
p75
F0
sS'zInv_1b_ge4j_3'
p76
F6.0682130088259356
sS'zInv_1b_ge4j_2'
p77
F17.162839124931178
sS'zInv_1b_ge4j_1'
p78
F35.789388563055724
sS'zInv_1b_ge4j_0'
p79
F44.243001882700405
sS'zInv_1b_ge4j_7'
p80
F0.8695349000877266
sS'zInv_1b_ge4j_6'
p81
F1.710499231114835
sS'zInv_1b_ge4j_5'
p82
F3.1493353236266772
sS'zInv_1b_ge4j_4'
p83
F3.3646901025155382
sS'ttw_1b_ge4j_7'
p84
F0.33845896827893301
sS'photExp_1b_ge4j_2'
p85
F32.66592468723907
ssS'chi2Prob'
p86
F0.81851250982736667
sS'parBestFit'
p87
(dp88
g4
F1.012131271959567
sg5
F1.034862868925019
sg6
F0.98871419019604323
sg7
F1.0017959550670121
sg8
F1.0030376731632076
sg9
F6.8228724969895138
sg10
F5.4274938466298552
sg11
F2.4343348201607471
sg12
F1.2079938683666596
sg13
F191.69828641815499
sg14
F122.35232158412352
sg15
F44.791838993761019
sg16
F17.094828588855204
sg17
F1.0018310353359554
sg18
F0.99618897965971887
sg19
F1.0191262500720688
sg20
F0.99671456833034455
sg21
F0.99051372391714254
sg22
F1.0050636790142282
sg23
F1.0325604874935976
sg24
F0.23079497844958474
sg25
F0.29251090702393151
sg26
F0.38316888769228169
sg27
F0.35497360955008606
sg28
F0.49314861211317595
sg29
F0.58025589942994105
sg30
F0.70265569754364565
sg31
F0.71981731270162264
sg32
F0.98983669382156447
sg33
F0.99444750230529466
sg34
F0.98998593845277594
sg35
F0.97714462796671242
ss.