(dp1
S'parError'
p2
(dp3
S'rhoPhotZ_0b_ge4j_4'
p4
F0.12052152307277109
sS'ewk_0b_ge4j_1'
p5
F11.667969176973344
sS'ewk_0b_ge4j_0'
p6
F15.596023478470499
sS'ewk_0b_ge4j_3'
p7
F5.673378163979514
sS'ewk_0b_ge4j_2'
p8
F8.2228086106970721
sS'ewk_0b_ge4j_5'
p9
F2.1553759919133499
sS'ewk_0b_ge4j_4'
p10
F3.3481812979615455
sS'ewk_0b_ge4j_7'
p11
F0.95046585128348093
sS'rhoPhotZ_0b_ge4j_2'
p12
F0.067657397247662288
sS'fZinv_0b_ge4j_3'
p13
F0.049481574399735995
sS'fZinv_0b_ge4j_2'
p14
F0.032926962610191346
sS'fZinv_0b_ge4j_5'
p15
F0.05620573226197273
sS'fZinv_0b_ge4j_4'
p16
F0.050911336263762375
sS'rhoPhotZ_0b_ge4j_5'
p17
F0.12364352505251802
sS'fZinv_0b_ge4j_6'
p18
F0.072588872174308317
sS'rhoPhotZ_0b_ge4j_3'
p19
F0.11473066701226498
sS'fZinv_0b_ge4j_0'
p20
F0.025264033255433499
sS'rhoPhotZ_0b_ge4j_1'
p21
F0.051599025487407413
sS'rhoPhotZ_0b_ge4j_0'
p22
F0.05059449393105131
sS'rhoMuonW_0b_ge4j_6'
p23
F0.13056806874462173
sS'rhoMuonW_0b_ge4j_7'
p24
F0.19095666661850813
sS'rhoMuonW_0b_ge4j_4'
p25
F0.12891156744650151
sS'rhoMuonW_0b_ge4j_5'
p26
F0.12959477565350452
sS'rhoMuonW_0b_ge4j_2'
p27
F0.073078099144732456
sS'rhoMuonW_0b_ge4j_3'
p28
F0.12530935278168903
sS'rhoMuonW_0b_ge4j_0'
p29
F0.051937886107944364
sS'rhoMuonW_0b_ge4j_1'
p30
F0.055516160792441982
sS'ewk_0b_ge4j_6'
p31
F1.499851520211827
sS'fZinv_0b_ge4j_1'
p32
F0.024249293790017001
sS'rhoPhotZ_0b_ge4j_7'
p33
F0.19146824615912106
sS'rhoPhotZ_0b_ge4j_6'
p34
F0.12892194326075068
sS'fZinv_0b_ge4j_7'
p35
F0.11278303114743793
ssS'lMax'
p36
F-55.369921479213041
sS'funcBestFit'
p37
(dp38
S'ttw_0b_ge4j_5'
p39
F3.8117281638679139
sS'ttw_0b_ge4j_4'
p40
F7.9906930458907945
sS'hadB_0b_ge4j_4'
p41
F27.133028155463023
sS'hadB_0b_ge4j_5'
p42
F13.951237113928395
sS'hadB_0b_ge4j_2'
p43
F147.68934434040918
sS'hadB_0b_ge4j_3'
p44
F65.957875507805412
sS'hadB_0b_ge4j_0'
p45
F456.07951588358543
sS'hadB_0b_ge4j_1'
p46
F291.31587127833842
sS'photExp_0b_ge4j_4'
p47
F32.593271320688167
sS'photExp_0b_ge4j_5'
p48
F21.803634573088861
sS'photExp_0b_ge4j_6'
p49
F7.6597875243994622
sS'photExp_0b_ge4j_7'
p50
F4.2010922984316705
sS'photExp_0b_ge4j_0'
p51
F439.44256562624912
sS'photExp_0b_ge4j_1'
p52
F348.69260515360253
sS'photExp_0b_ge4j_2'
p53
F161.26939992532425
sS'photExp_0b_ge4j_3'
p54
F83.007349804182837
sS'ttw_0b_ge4j_3'
p55
F24.202610210423064
sS'muonB_0b_ge4j_1'
p56
F890.97842994473228
sS'muonB_0b_ge4j_0'
p57
F1260.426043728786
sS'muonB_0b_ge4j_3'
p58
F308.02444607334644
sS'muonB_0b_ge4j_2'
p59
F566.03865099242091
sS'muonB_0b_ge4j_5'
p60
F81.279190019048386
sS'muonB_0b_ge4j_4'
p61
F162.26528618161007
sS'muonB_0b_ge4j_7'
p62
F28.606100217873092
sS'muonB_0b_ge4j_6'
p63
F46.884298222998133
sS'hadB_0b_ge4j_6'
p64
F6.4728808880796933
sS'hadB_0b_ge4j_7'
p65
F3.1848791367725426
sS'ttw_0b_ge4j_7'
p66
F1.0440242233846388
sS'ttw_0b_ge4j_6'
p67
F1.688032512722383
sS'ttw_0b_ge4j_1'
p68
F114.56694961580217
sS'ttw_0b_ge4j_0'
p69
F218.43751463060985
sS'qcd_0b_ge4j_6'
p70
F0
sS'qcd_0b_ge4j_7'
p71
F0
sS'qcd_0b_ge4j_4'
p72
F0
sS'qcd_0b_ge4j_5'
p73
F0
sS'qcd_0b_ge4j_2'
p74
F0
sS'qcd_0b_ge4j_3'
p75
F0
sS'qcd_0b_ge4j_1'
p76
F0
sS'ttw_0b_ge4j_2'
p77
F57.80033847816609
sS'zInv_0b_ge4j_6'
p78
F4.7848483753573108
sS'zInv_0b_ge4j_7'
p79
F2.140854913387904
sS'zInv_0b_ge4j_4'
p80
F19.14233510957223
sS'zInv_0b_ge4j_5'
p81
F10.139508950060481
sS'zInv_0b_ge4j_2'
p82
F89.889005862243096
sS'zInv_0b_ge4j_3'
p83
F41.755265297382344
sS'zInv_0b_ge4j_0'
p84
F237.64200125297558
sS'zInv_0b_ge4j_1'
p85
F176.74892166253625
ssS'chi2Prob'
p86
F0.74205788192512734
sS'parBestFit'
p87
(dp88
g4
F0.99001740158216989
sg5
F291.31587127833842
sg6
F456.07951588358543
sg7
F65.957875507805412
sg8
F147.68934434040918
sg9
F13.951237113928395
sg10
F27.133028155463023
sg11
F3.1848791367725426
sg12
F0.96355698852022376
sg13
F0.63305958501409065
sg14
F0.60863568907894883
sg15
F0.72678206722883187
sg16
F0.70549940094755215
sg17
F0.98638346621326423
sg18
F0.73921464925594038
sg19
F1.000286771482422
sg20
F0.52105387980992734
sg21
F0.98416718876197928
sg22
F0.95863866930660613
sg23
F1.0014724644407997
sg24
F1.0148090145071511
sg25
F0.99519411849374728
sg26
F0.99447264151565351
sg27
F0.97631721718339004
sg28
F0.99780694506904155
sg29
F0.96156698245646699
sg30
F0.99008645163335263
sg31
F6.4728808880796933
sg32
F0.60672602864696334
sg33
F1.0293619397083345
sg34
F1.0057152283143278
sg35
F0.67219345584252832
ss.