(dp1
S'parError'
p2
(dp3
S'rhoMuonW_2b_ge4j_4'
p4
F0.13085112418115913
sS'rhoMuonW_2b_ge4j_5'
p5
F0.130848630847197
sS'rhoMuonW_2b_ge4j_6'
p6
F0.13084313962198391
sS'rhoMuonW_2b_ge4j_7'
p7
F0.1900601122362518
sS'rhoMuonW_2b_ge4j_0'
p8
F0.058255103863624924
sS'rhoMuonW_2b_ge4j_1'
p9
F0.058256275728444662
sS'rhoMuonW_2b_ge4j_2'
p10
F0.076926761731165083
sS'rhoMuonW_2b_ge4j_3'
p11
F0.13085859290035096
sS'ewk_2b_ge4j_3'
p12
F1.099549108428246
sS'ewk_2b_ge4j_2'
p13
F1.8015759040051904
sS'ewk_2b_ge4j_1'
p14
F3.2263934611881027
sS'ewk_2b_ge4j_0'
p15
F4.9304797371141049
sS'ewk_2b_ge4j_7'
p16
F0.14434682047421321
sS'ewk_2b_ge4j_6'
p17
F0.14898881106857387
sS'ewk_2b_ge4j_5'
p18
F0.22796834935971344
sS'ewk_2b_ge4j_4'
p19
F0.35840726083467289
ssS'lMax'
p20
F-14.119217879519917
sS'funcBestFit'
p21
(dp22
S'qcd_2b_ge4j_4'
p23
F0
sS'qcd_2b_ge4j_5'
p24
F0
sS'qcd_2b_ge4j_6'
p25
F0
sS'qcd_2b_ge4j_7'
p26
F0
sS'qcd_2b_ge4j_1'
p27
F0
sS'qcd_2b_ge4j_2'
p28
F0
sS'qcd_2b_ge4j_3'
p29
F0
sS'hadB_2b_ge4j_4'
p30
F1.9087563660924001
sS'hadB_2b_ge4j_5'
p31
F0.86327478785740097
sS'hadB_2b_ge4j_6'
p32
F0.45357620195396908
sS'hadB_2b_ge4j_7'
p33
F0.37624309408967715
sS'hadB_2b_ge4j_0'
p34
F71.836367109596139
sS'hadB_2b_ge4j_1'
p35
F44.164703626766737
sS'hadB_2b_ge4j_2'
p36
F18.414488345573581
sS'hadB_2b_ge4j_3'
p37
F6.9228314905367805
sS'muonB_2b_ge4j_3'
p38
F124.0000000054537
sS'muonB_2b_ge4j_2'
p39
F274.00000001781888
sS'muonB_2b_ge4j_1'
p40
F515.00000003904518
sS'muonB_2b_ge4j_0'
p41
F759.99999988127831
sS'muonB_2b_ge4j_7'
p42
F9.000000025955682
sS'muonB_2b_ge4j_6'
p43
F11.000000001087688
sS'muonB_2b_ge4j_5'
p44
F19.000000026353113
sS'muonB_2b_ge4j_4'
p45
F55.000000083356056
ssS'chi2Prob'
p46
F0
sS'parBestFit'
p47
(dp48
g4
F0.99999999866409373
sg5
F1.0000000011769576
sg6
F1.000000000051011
sg7
F1.0000000024400357
sg8
F1.0000000006920917
sg9
F1.0000000001629969
sg10
F1.0000000000050582
sg11
F1.0000000000421516
sg12
F6.9228314905367805
sg13
F18.414488345573581
sg14
F44.164703626766737
sg15
F71.836367109596139
sg16
F0.37624309408967715
sg17
F0.45357620195396908
sg18
F0.86327478785740097
sg19
F1.9087563660924001
ss.