(dp1
S'parError'
p2
(dp3
S'rhoMuonW_1b_ge4j_7'
p4
F0.19111241026578979
sS'rhoMuonW_1b_ge4j_3'
p5
F0.12814775761556096
sS'rhoMuonW_1b_ge4j_0'
p6
F0.049100114727641031
sS'rhoMuonW_1b_ge4j_6'
p7
F0.13074548420859666
sS'rhoMuonW_1b_ge4j_2'
p8
F0.074148658363443976
sS'ewk_1b_ge4j_4'
p9
F1.2629467178677256
sS'ewk_1b_ge4j_5'
p10
F1.4514663390752407
sS'ewk_1b_ge4j_6'
p11
F0.79398154880474581
sS'ewk_1b_ge4j_7'
p12
F0.62982014385528617
sS'ewk_1b_ge4j_0'
p13
F8.4790929503750903
sS'ewk_1b_ge4j_1'
p14
F6.0372763041593061
sS'ewk_1b_ge4j_2'
p15
F3.581729762599803
sS'ewk_1b_ge4j_3'
p16
F2.1487714101309097
sS'rhoPhotZ_1b_ge4j_2'
p17
F0.075891900457829398
sS'rhoMuonW_1b_ge4j_5'
p18
F0.12992833715859342
sS'rhoPhotZ_1b_ge4j_3'
p19
F0.13092862927040916
sS'rhoPhotZ_1b_ge4j_0'
p20
F0.057221959842335357
sS'rhoPhotZ_1b_ge4j_1'
p21
F0.056989740587769067
sS'rhoPhotZ_1b_ge4j_6'
p22
F0.13048117868536263
sS'rhoPhotZ_1b_ge4j_7'
p23
F0.19460248436005262
sS'fZinv_1b_ge4j_0'
p24
F0.023990547948617436
sS'fZinv_1b_ge4j_1'
p25
F0.030304087265311891
sS'fZinv_1b_ge4j_2'
p26
F0.048495483398017486
sS'fZinv_1b_ge4j_3'
p27
F0.075115008858234966
sS'fZinv_1b_ge4j_4'
p28
F0.10157478393262767
sS'fZinv_1b_ge4j_5'
p29
F0.1243626234283757
sS'fZinv_1b_ge4j_6'
p30
F0.10896053774730502
sS'fZinv_1b_ge4j_7'
p31
F0.15806749111104029
sS'rhoMuonW_1b_ge4j_4'
p32
F0.12848645756684435
sS'rhoPhotZ_1b_ge4j_5'
p33
F0.12893739281850752
sS'rhoPhotZ_1b_ge4j_4'
p34
F0.12834916232555177
sS'rhoMuonW_1b_ge4j_1'
p35
F0.05248330806858692
ssS'lMax'
p36
F-44.682544781585371
sS'funcBestFit'
p37
(dp38
S'ttw_1b_ge4j_0'
p39
F146.50530842825222
sS'ttw_1b_ge4j_1'
p40
F84.919463191641043
sS'hadB_1b_ge4j_1'
p41
F120.28842738187166
sS'hadB_1b_ge4j_0'
p42
F190.39342000252034
sS'ttw_1b_ge4j_4'
p43
F3.4581864395527036
sS'ttw_1b_ge4j_5'
p44
F2.2781123822087976
sS'hadB_1b_ge4j_5'
p45
F5.4237452445153114
sS'hadB_1b_ge4j_2'
p46
F45.59717067417175
sS'ttw_1b_ge4j_2'
p47
F28.117166531235412
sS'hadB_1b_ge4j_3'
p48
F17.093046480342977
sS'ttw_1b_ge4j_3'
p49
F11.02539682506101
sS'hadB_1b_ge4j_7'
p50
F1.2064117528205309
sS'hadB_1b_ge4j_6'
p51
F2.4348510046130967
sS'ttw_1b_ge4j_6'
p52
F0.72423657992621648
sS'photExp_1b_ge4j_1'
p53
F81.307296841225437
sS'photExp_1b_ge4j_0'
p54
F101.62582323194843
sS'photExp_1b_ge4j_3'
p55
F11.893154618537185
sS'hadB_1b_ge4j_4'
p56
F6.8245823603551914
sS'photExp_1b_ge4j_5'
p57
F3.3196500947054908
sS'photExp_1b_ge4j_4'
p58
F7.5855984657357816
sS'photExp_1b_ge4j_7'
p59
F1.1229019193621748
sS'photExp_1b_ge4j_6'
p60
F3.7058183593295464
sS'muonB_1b_ge4j_4'
p61
F86.61085961078075
sS'muonB_1b_ge4j_5'
p62
F55.25132124531536
sS'muonB_1b_ge4j_6'
p63
F24.892658231235956
sS'muonB_1b_ge4j_7'
p64
F10.673214752938394
sS'muonB_1b_ge4j_0'
p65
F1249.9872008341961
sS'muonB_1b_ge4j_1'
p66
F891.37571186930859
sS'muonB_1b_ge4j_2'
p67
F384.61901012008838
sS'muonB_1b_ge4j_3'
p68
F199.99936920902692
sS'qcd_1b_ge4j_3'
p69
F0
sS'qcd_1b_ge4j_2'
p70
F0
sS'qcd_1b_ge4j_1'
p71
F0
sS'qcd_1b_ge4j_7'
p72
F0
sS'qcd_1b_ge4j_6'
p73
F0
sS'qcd_1b_ge4j_5'
p74
F0
sS'qcd_1b_ge4j_4'
p75
F0
sS'zInv_1b_ge4j_3'
p76
F6.0676496552819668
sS'zInv_1b_ge4j_2'
p77
F17.480004142936338
sS'zInv_1b_ge4j_1'
p78
F35.368964190230621
sS'zInv_1b_ge4j_0'
p79
F43.888111574268123
sS'zInv_1b_ge4j_7'
p80
F0.86764080544349664
sS'zInv_1b_ge4j_6'
p81
F1.7106144246868802
sS'zInv_1b_ge4j_5'
p82
F3.1456328623065137
sS'zInv_1b_ge4j_4'
p83
F3.3663959208024874
sS'ttw_1b_ge4j_7'
p84
F0.33877094737703423
sS'photExp_1b_ge4j_2'
p85
F32.717161348992022
ssS'chi2Prob'
p86
F0.45821947430274057
sS'parBestFit'
p87
(dp88
g4
F1.0116706044270076
sg5
F1.0348003314424616
sg6
F0.95971386750422316
sg7
F1.0015587484490611
sg8
F1.0022534253497559
sg9
F6.8245823603551914
sg10
F5.4237452445153114
sg11
F2.4348510046130967
sg12
F1.2064117528205309
sg13
F190.39342000252034
sg14
F120.28842738187166
sg15
F45.59717067417175
sg16
F17.093046480342977
sg17
F1.0014301532241652
sg18
F0.99603887443052019
sg19
F1.0192135944650182
sg20
F0.98788515639456598
sg21
F0.98543280441826353
sg22
F1.0052155730943295
sg23
F1.0329273105039496
sg24
F0.23051275392651255
sg25
F0.29403463791198403
sg26
F0.38335721020597846
sg27
F0.35497766078503157
sg28
F0.49327500835190746
sg29
F0.57997430198025846
sg30
F0.70255404599539373
sg31
F0.71919127397009808
sg32
F0.98978325632607023
sg33
F0.9945426547787618
sg34
F0.9899161992786184
sg35
F0.96533265238347965
ss.