(dp1
S'parError'
p2
(dp3
S'ewk_2b_le3j_7'
p4
F0.0013118167799688885
sS'ewk_2b_le3j_6'
p5
F0.016857469423922355
sS'ewk_2b_le3j_5'
p6
F0.018156071903598636
sS'ewk_2b_le3j_4'
p7
F0.059105965023401319
sS'ewk_2b_le3j_3'
p8
F0.27025714042917398
sS'ewk_2b_le3j_2'
p9
F0.53807822576395603
sS'ewk_2b_le3j_1'
p10
F1.5353526586447703
sS'ewk_2b_le3j_0'
p11
F3.9513297445362952
sS'rhoMuonW_2b_le3j_0'
p12
F0.050845678908654157
sS'rhoMuonW_2b_le3j_1'
p13
F0.056722249509466249
sS'rhoMuonW_2b_le3j_2'
p14
F0.065871285463767915
sS'rhoMuonW_2b_le3j_3'
p15
F0.10975528537666723
sS'rhoMuonW_2b_le3j_4'
p16
F0.11336655846970395
sS'rhoMuonW_2b_le3j_5'
p17
F0.15676122741956461
sS'rhoMuonW_2b_le3j_6'
p18
F0.15673362860078127
sS'rhoMuonW_2b_le3j_7'
p19
F0.156684976032195
ssS'lMax'
p20
F-22.103181281539285
sS'funcBestFit'
p21
(dp22
S'hadB_2b_le3j_0'
p23
F65.009019400689269
sS'hadB_2b_le3j_1'
p24
F18.375171126629521
sS'hadB_2b_le3j_2'
p25
F4.2418865907062742
sS'hadB_2b_le3j_3'
p26
F1.1131908010934271
sS'hadB_2b_le3j_4'
p27
F0.21018744155433422
sS'hadB_2b_le3j_5'
p28
F0.038344433340926631
sS'hadB_2b_le3j_6'
p29
F0.023287139432277559
sS'hadB_2b_le3j_7'
p30
F0.0012959723536748458
sS'qcd_2b_le3j_1'
p31
F0
sS'qcd_2b_le3j_2'
p32
F0
sS'qcd_2b_le3j_3'
p33
F0
sS'qcd_2b_le3j_4'
p34
F0
sS'qcd_2b_le3j_5'
p35
F0
sS'qcd_2b_le3j_6'
p36
F0
sS'qcd_2b_le3j_7'
p37
F0
sS'muonB_2b_le3j_7'
p38
F0.99859304859136622
sS'muonB_2b_le3j_6'
p39
F1.97522398752184
sS'muonB_2b_le3j_5'
p40
F4.9609215226180989
sS'muonB_2b_le3j_4'
p41
F14.789434212050537
sS'muonB_2b_le3j_3'
p42
F19.882234965315465
sS'muonB_2b_le3j_2'
p43
F78.764452405566118
sS'muonB_2b_le3j_1'
p44
F216.60951268899882
sS'muonB_2b_le3j_0'
p45
F680.9413230242485
ssS'chi2Prob'
p46
F0.22184865457074043
sS'parBestFit'
p47
(dp48
g4
F0.0012959723536748458
sg5
F0.023287139432277559
sg6
F0.038344433340926631
sg7
F0.21018744155433422
sg8
F1.1131908010934271
sg9
F4.2418865907062742
sg10
F18.375171126629521
sg11
F65.009019400689269
sg12
F0.9567786947922543
sg13
F1.0013283231700418
sg14
F0.98287178967604882
sg15
F0.97603060909901951
sg16
F1.0027246558383505
sg17
F1.0009709230448975
sg18
F1.0006178198980171
sg19
F1.0000350686210688
ss.