(dp1
S'parError'
p2
(dp3
S'ewk_2b_le3j_7'
p4
F0.0013137167689097895
sS'ewk_2b_le3j_6'
p5
F0.017086116423555564
sS'ewk_2b_le3j_5'
p6
F0.018332607785198907
sS'ewk_2b_le3j_4'
p7
F0.060257905207657114
sS'ewk_2b_le3j_3'
p8
F0.25715628809797586
sS'ewk_2b_le3j_2'
p9
F0.53122621920134838
sS'ewk_2b_le3j_1'
p10
F1.6487803961184717
sS'ewk_2b_le3j_0'
p11
F4.266332173047676
sS'rhoMuonW_2b_le3j_0'
p12
F0.058229639960259982
sS'rhoMuonW_2b_le3j_1'
p13
F0.058251384824109298
sS'rhoMuonW_2b_le3j_2'
p14
F0.067632752359540693
sS'rhoMuonW_2b_le3j_3'
p15
F0.11320749390740303
sS'rhoMuonW_2b_le3j_4'
p16
F0.11320758599565461
sS'rhoMuonW_2b_le3j_5'
p17
F0.15668236728230811
sS'rhoMuonW_2b_le3j_6'
p18
F0.15668153790937422
sS'rhoMuonW_2b_le3j_7'
p19
F0.15668183062813623
ssS'lMax'
p20
F-8.6171714204006928
sS'funcBestFit'
p21
(dp22
S'hadB_2b_le3j_0'
p23
F61.017145055008221
sS'hadB_2b_le3j_1'
p24
F18.432748667589433
sS'hadB_2b_le3j_2'
p25
F3.9699672926777785
sS'hadB_2b_le3j_3'
p26
F0.98364944160156009
sS'hadB_2b_le3j_4'
p27
F0.21376084470734968
sS'hadB_2b_le3j_5'
p28
F0.038684005239660868
sS'hadB_2b_le3j_6'
p29
F0.023593806917686644
sS'hadB_2b_le3j_7'
p30
F0.0012978438048077967
sS'qcd_2b_le3j_1'
p31
F0
sS'qcd_2b_le3j_2'
p32
F0
sS'qcd_2b_le3j_3'
p33
F0
sS'qcd_2b_le3j_4'
p34
F0
sS'qcd_2b_le3j_5'
p35
F0
sS'qcd_2b_le3j_6'
p36
F0
sS'qcd_2b_le3j_7'
p37
F0
sS'muonB_2b_le3j_7'
p38
F1.0000000000001568
sS'muonB_2b_le3j_6'
p39
F1.9999999999999978
sS'muonB_2b_le3j_5'
p40
F5.0000000000000133
sS'muonB_2b_le3j_4'
p41
F15.000000000000009
sS'muonB_2b_le3j_3'
p42
F17.999999999999996
sS'muonB_2b_le3j_2'
p43
F74.999999999999972
sS'muonB_2b_le3j_1'
p44
F216.99999999999997
sS'muonB_2b_le3j_0'
p45
F668.00000000000023
ssS'chi2Prob'
p46
F0
sS'parBestFit'
p47
(dp48
g4
F0.0012978438048077967
sg5
F0.023593806917686644
sg6
F0.038684005239660868
sg7
F0.21376084470734968
sg8
F0.98364944160156009
sg9
F3.9699672926777785
sg10
F18.432748667589433
sg11
F61.017145055008221
sg12
F1
sg13
F1
sg14
F1
sg15
F1
sg16
F1
sg17
F1
sg18
F1
sg19
F1
ss.