(dp1
S'parError'
p2
(dp3
S'rhoMuonW_1b_ge4j_7'
p4
F0.18988047026186883
sS'rhoMuonW_1b_ge4j_3'
p5
F0.1309829841555582
sS'rhoMuonW_1b_ge4j_0'
p6
F0.058252921823772563
sS'rhoMuonW_1b_ge4j_6'
p7
F0.13096370544784414
sS'rhoMuonW_1b_ge4j_2'
p8
F0.076947539552333022
sS'ewk_1b_ge4j_4'
p9
F1.3568788991186387
sS'ewk_1b_ge4j_5'
p10
F1.7306284420184039
sS'ewk_1b_ge4j_6'
p11
F0.97259832526621448
sS'ewk_1b_ge4j_7'
p12
F1.1557591344074973
sS'ewk_1b_ge4j_0'
p13
F10.259793151638988
sS'ewk_1b_ge4j_1'
p14
F6.8966583124633303
sS'ewk_1b_ge4j_2'
p15
F4.2525917987529311
sS'ewk_1b_ge4j_3'
p16
F2.6892903320392021
sS'rhoPhotZ_1b_ge4j_2'
p17
F0.076891968859961191
sS'rhoMuonW_1b_ge4j_5'
p18
F0.13084795701370877
sS'rhoPhotZ_1b_ge4j_3'
p19
F0.1307952387808895
sS'rhoPhotZ_1b_ge4j_0'
p20
F0.058242502793215079
sS'rhoPhotZ_1b_ge4j_1'
p21
F0.058266616552119121
sS'rhoPhotZ_1b_ge4j_6'
p22
F0.13085293381996793
sS'rhoPhotZ_1b_ge4j_7'
p23
F0.19016975671089659
sS'fZinv_1b_ge4j_0'
p24
F0.02368773709544994
sS'fZinv_1b_ge4j_1'
p25
F0.02971940053044253
sS'fZinv_1b_ge4j_2'
p26
F0.050008653509677758
sS'fZinv_1b_ge4j_3'
p27
F0.079113424295098461
sS'fZinv_1b_ge4j_4'
p28
F0.10754645146427053
sS'fZinv_1b_ge4j_5'
p29
F0.15070847478935256
sS'fZinv_1b_ge4j_6'
p30
F0.11390787961059606
sS'fZinv_1b_ge4j_7'
p31
F0.1193829830175604
sS'rhoMuonW_1b_ge4j_4'
p32
F0.13085781843470146
sS'rhoPhotZ_1b_ge4j_5'
p33
F0.13081791034248103
sS'rhoPhotZ_1b_ge4j_4'
p34
F0.13086346141594007
sS'rhoMuonW_1b_ge4j_1'
p35
F0.058255500243540648
ssS'lMax'
p36
F-23.137821165140686
sS'funcBestFit'
p37
(dp38
S'ttw_1b_ge4j_0'
p39
F139.2434520480179
sS'ttw_1b_ge4j_1'
p40
F81.011200173985017
sS'hadB_1b_ge4j_1'
p41
F114.0107129477263
sS'hadB_1b_ge4j_0'
p42
F181.07021687237602
sS'ttw_1b_ge4j_4'
p43
F3.3986828034548782
sS'ttw_1b_ge4j_5'
p44
F2.2589248585936001
sS'hadB_1b_ge4j_5'
p45
F5.1012419355071659
sS'hadB_1b_ge4j_2'
p46
F45.875347995836798
sS'ttw_1b_ge4j_2'
p47
F28.204930710217312
sS'hadB_1b_ge4j_3'
p48
F18.280281429397647
sS'ttw_1b_ge4j_3'
p49
F11.513981403727129
sS'hadB_1b_ge4j_7'
p50
F1.9435855000771869
sS'hadB_1b_ge4j_6'
p51
F2.5864671943816706
sS'ttw_1b_ge4j_6'
p52
F0.72802486753266604
sS'photExp_1b_ge4j_1'
p53
F76.996184048776968
sS'photExp_1b_ge4j_0'
p54
F98.025269382466547
sS'photExp_1b_ge4j_3'
p55
F13.008462426925277
sS'hadB_1b_ge4j_4'
p56
F6.4698729506884822
sS'photExp_1b_ge4j_5'
p57
F3.0152647284088565
sS'photExp_1b_ge4j_4'
p58
F6.9920542800388947
sS'photExp_1b_ge4j_7'
p59
F1.9933204065600365
sS'photExp_1b_ge4j_6'
p60
F4.0052704866627105
sS'muonB_1b_ge4j_4'
p61
F86.0049335166389
sS'muonB_1b_ge4j_5'
p62
F55.002800904027254
sS'muonB_1b_ge4j_6'
p63
F25.000722526254762
sS'muonB_1b_ge4j_7'
p64
F11.00341519739254
sS'muonB_1b_ge4j_0'
p65
F1237.942010414248
sS'muonB_1b_ge4j_1'
p66
F880.9659770542977
sS'muonB_1b_ge4j_2'
p67
F385.0156854624139
sS'muonB_1b_ge4j_3'
p68
F201.994856836163
sS'qcd_1b_ge4j_3'
p69
F0
sS'qcd_1b_ge4j_2'
p70
F0
sS'qcd_1b_ge4j_1'
p71
F0
sS'qcd_1b_ge4j_7'
p72
F0
sS'qcd_1b_ge4j_6'
p73
F0
sS'qcd_1b_ge4j_5'
p74
F0
sS'qcd_1b_ge4j_4'
p75
F0
sS'zInv_1b_ge4j_3'
p76
F6.7663000256705175
sS'zInv_1b_ge4j_2'
p77
F17.670417285619486
sS'zInv_1b_ge4j_1'
p78
F32.999512773741287
sS'zInv_1b_ge4j_0'
p79
F41.826764824358122
sS'zInv_1b_ge4j_7'
p80
F1.5900218030492077
sS'zInv_1b_ge4j_6'
p81
F1.8584423268490045
sS'zInv_1b_ge4j_5'
p82
F2.8423170769135657
sS'zInv_1b_ge4j_4'
p83
F3.0711901472336041
sS'ttw_1b_ge4j_7'
p84
F0.35356369702797913
sS'photExp_1b_ge4j_2'
p85
F33.014953840246157
ssS'chi2Prob'
p86
F0
sS'parBestFit'
p87
(dp88
g4
F0.99933218834307169
sg5
F1.0007761586996533
sg6
F1.0000347349619074
sg7
F1.0006724770817772
sg8
F1.0001652063918183
sg9
F6.4698729506884822
sg10
F5.1012419355071659
sg11
F2.5864671943816706
sg12
F1.9435855000771869
sg13
F181.07021687237602
sg14
F114.0107129477263
sg15
F45.875347995836798
sg16
F18.280281429397647
sg17
F0.99965574986370886
sg18
F0.99998108770289273
sg19
F0.99968541361052221
sg20
F0.99984584819821509
sg21
F1.000187697774694
sg22
F1.0000229612614251
sg23
F1.0005572385438828
sg24
F0.23099748565408157
sg25
F0.28944221047781271
sg26
F0.38518328596053553
sg27
F0.37014200529698704
sg28
F0.47469095152893037
sg29
F0.55718139089417296
sg30
F0.7185253812172514
sg31
F0.81808688271550811
sg32
F1.000066518522885
sg33
F0.99975149215241543
sg34
F1.0001654734391199
sg35
F1.0000863744574324
ss.