(dp1
S'parError'
p2
(dp3
S'rhoMuonW_1b_le3j_7'
p4
F0.15663408132147449
sS'rhoMuonW_1b_le3j_6'
p5
F0.1568375436319272
sS'rhoMuonW_1b_le3j_5'
p6
F0.15668674615249301
sS'rhoMuonW_1b_le3j_4'
p7
F0.1131583392031128
sS'rhoMuonW_1b_le3j_3'
p8
F0.11331329955091946
sS'rhoMuonW_1b_le3j_2'
p9
F0.067626833176557044
sS'rhoMuonW_1b_le3j_1'
p10
F0.058254461637062716
sS'rhoMuonW_1b_le3j_0'
p11
F0.058301057623906138
sS'fZinv_1b_le3j_4'
p12
F0.11115323465000843
sS'fZinv_1b_le3j_5'
p13
F0.091770283277658016
sS'fZinv_1b_le3j_6'
p14
F0.18674090916075575
sS'fZinv_1b_le3j_7'
p15
F0.87138677458647928
sS'fZinv_1b_le3j_0'
p16
F0.024219040989268026
sS'fZinv_1b_le3j_1'
p17
F0.03036967230540949
sS'fZinv_1b_le3j_2'
p18
F0.044286097093515386
sS'fZinv_1b_le3j_3'
p19
F0.075959944054896367
sS'ewk_1b_le3j_0'
p20
F19.659217249569963
sS'ewk_1b_le3j_1'
p21
F7.1156514065471228
sS'ewk_1b_le3j_2'
p22
F3.440574490128343
sS'ewk_1b_le3j_3'
p23
F1.5265973229762779
sS'ewk_1b_le3j_4'
p24
F0.95572163269598631
sS'ewk_1b_le3j_5'
p25
F0.64110787029078631
sS'ewk_1b_le3j_6'
p26
F0.27944770958722276
sS'ewk_1b_le3j_7'
p27
F0.047732976116544867
sS'rhoPhotZ_1b_le3j_6'
p28
F0.15673674970284474
sS'rhoPhotZ_1b_le3j_7'
p29
F0.15666807588678766
sS'rhoPhotZ_1b_le3j_4'
p30
F0.11320548699728455
sS'rhoPhotZ_1b_le3j_5'
p31
F0.15677612646838401
sS'rhoPhotZ_1b_le3j_2'
p32
F0.067630726547916631
sS'rhoPhotZ_1b_le3j_3'
p33
F0.11319927195172452
sS'rhoPhotZ_1b_le3j_0'
p34
F0.0582441298983436
sS'rhoPhotZ_1b_le3j_1'
p35
F0.058255766538419129
ssS'lMax'
p36
F-21.135347509240464
sS'funcBestFit'
p37
(dp38
S'ttw_1b_le3j_4'
p39
F1.6508870551851886
sS'ttw_1b_le3j_5'
p40
F0.30016616613944336
sS'hadB_1b_le3j_5'
p41
F1.5159875288063429
sS'hadB_1b_le3j_4'
p42
F3.8100935323423215
sS'ttw_1b_le3j_0'
p43
F218.4196261165709
sS'ttw_1b_le3j_1'
p44
F51.093722473233306
sS'ttw_1b_le3j_2'
p45
F15.282571754566009
sS'hadB_1b_le3j_0'
p46
F408.19091174497555
sS'ttw_1b_le3j_6'
p47
F0.086274146729820728
sS'muonB_1b_le3j_0'
p48
F2272.0069244454057
sS'muonB_1b_le3j_1'
p49
F787.0303182112558
sS'muonB_1b_le3j_2'
p50
F325.00549021090995
sS'ttw_1b_le3j_7'
p51
F0.12336958289510892
sS'muonB_1b_le3j_4'
p52
F63.008662115461448
sS'muonB_1b_le3j_5'
p53
F25.002346523393491
sS'muonB_1b_le3j_6'
p54
F16.007694939832952
sS'muonB_1b_le3j_7'
p55
F7.993123726059741
sS'hadB_1b_le3j_3'
p56
F8.6432875243323029
sS'hadB_1b_le3j_2'
p57
F35.339150492141648
sS'hadB_1b_le3j_1'
p58
F112.07124620976693
sS'hadB_1b_le3j_6'
p59
F0.36031657673698259
sS'ttw_1b_le3j_3'
p60
F3.5279365198732426
sS'qcd_1b_le3j_7'
p61
F0
sS'qcd_1b_le3j_6'
p62
F0
sS'qcd_1b_le3j_5'
p63
F0
sS'qcd_1b_le3j_4'
p64
F0
sS'qcd_1b_le3j_3'
p65
F0
sS'qcd_1b_le3j_2'
p66
F0
sS'qcd_1b_le3j_1'
p67
F0
sS'photExp_1b_le3j_5'
p68
F3.9779535442741829
sS'photExp_1b_le3j_4'
p69
F5.9989401713425687
sS'photExp_1b_le3j_7'
p70
F5.1308472669279053e-06
sS'photExp_1b_le3j_6'
p71
F0.98598052294848337
sS'photExp_1b_le3j_1'
p72
F143.9651624997972
sS'photExp_1b_le3j_0'
p73
F444.02438613503131
sS'photExp_1b_le3j_3'
p74
F15.009198435847827
sS'photExp_1b_le3j_2'
p75
F48.995267394609613
sS'zInv_1b_le3j_7'
p76
F1.3956775049907443e-06
sS'zInv_1b_le3j_6'
p77
F0.27404243000716183
sS'zInv_1b_le3j_5'
p78
F1.2158213626668994
sS'zInv_1b_le3j_4'
p79
F2.1592064771571331
sS'zInv_1b_le3j_3'
p80
F5.1153510044590602
sS'zInv_1b_le3j_2'
p81
F20.056578737575638
sS'zInv_1b_le3j_1'
p82
F60.97752373653362
sS'zInv_1b_le3j_0'
p83
F189.77128562840466
sS'hadB_1b_le3j_7'
p84
F0.12337097857261392
sS'muonB_1b_le3j_3'
p85
F137.00413644727885
ssS'chi2Prob'
p86
F0
sS'parBestFit'
p87
(dp88
g4
F0.99980824338885177
sg5
F1.0006700072930232
sg6
F1.0000338516307989
sg7
F0.99961425468909193
sg8
F1.0006068964145911
sg9
F0.99990409059493623
sg10
F0.9999653616909534
sg11
F1.0005120318458296
sg12
F0.56670694796033605
sg13
F0.80199958084365774
sg14
F0.76056015098967378
sg15
F1.1312851054101625e-05
sg16
F0.46490815980481115
sg17
F0.54409606209250372
sg18
F0.5675455821167974
sg19
F0.5918293230508056
sg20
F408.19091174497555
sg21
F112.07124620976693
sg22
F35.339150492141648
sg23
F8.6432875243323029
sg24
F3.8100935323423215
sg25
F1.5159875288063429
sg26
F0.36031657673698259
sg27
F0.12337097857261392
sg28
F1.0003465897293602
sg29
F0.99993763001406655
sg30
F0.99995936311225075
sg31
F1.0006466877967592
sg32
F0.99996704375393763
sg33
F0.99986277531910439
sg34
F0.99981974872499602
sg35
F1.0000546065689946
ss.