(dp1
S'parError'
p2
(dp3
S'rhoMuonW_0b_le3j_2'
p4
F0.067633846656682262
sS'rhoMuonW_0b_le3j_3'
p5
F0.11325416539902811
sS'rhoMuonW_0b_le3j_0'
p6
F0.058166615987535586
sS'rhoMuonW_0b_le3j_1'
p7
F0.058283765719545744
sS'rhoMuonW_0b_le3j_6'
p8
F0.15662983086942522
sS'rhoMuonW_0b_le3j_7'
p9
F0.15673433133016962
sS'rhoMuonW_0b_le3j_4'
p10
F0.11320300884400597
sS'rhoMuonW_0b_le3j_5'
p11
F0.15670218336430863
sS'fZinv_0b_le3j_1'
p12
F0.019637673901252206
sS'fZinv_0b_le3j_0'
p13
F0.019315188414943063
sS'fZinv_0b_le3j_3'
p14
F0.039614226381672668
sS'fZinv_0b_le3j_2'
p15
F0.023056446459654045
sS'fZinv_0b_le3j_5'
p16
F0.053814850863197039
sS'fZinv_0b_le3j_4'
p17
F0.046943711193648319
sS'fZinv_0b_le3j_7'
p18
F0.070794263792163803
sS'fZinv_0b_le3j_6'
p19
F0.08021600812608104
sS'ewk_0b_le3j_5'
p20
F2.7965964148695175
sS'ewk_0b_le3j_4'
p21
F4.5598219911125604
sS'ewk_0b_le3j_7'
p22
F0.95679816852264454
sS'ewk_0b_le3j_6'
p23
F1.3717598234506543
sS'ewk_0b_le3j_1'
p24
F37.350144194536597
sS'ewk_0b_le3j_0'
p25
F125.57572683335707
sS'ewk_0b_le3j_3'
p26
F8.0833529265359232
sS'ewk_0b_le3j_2'
p27
F15.795706124446539
sS'rhoPhotZ_0b_le3j_3'
p28
F0.11322748229409829
sS'rhoPhotZ_0b_le3j_2'
p29
F0.067635151492020373
sS'rhoPhotZ_0b_le3j_1'
p30
F0.058253263538038225
sS'rhoPhotZ_0b_le3j_0'
p31
F0.058278191982530925
sS'rhoPhotZ_0b_le3j_7'
p32
F0.15669192447253655
sS'rhoPhotZ_0b_le3j_6'
p33
F0.15675440923094597
sS'rhoPhotZ_0b_le3j_5'
p34
F0.15676750948028928
sS'rhoPhotZ_0b_le3j_4'
p35
F0.11314129718880761
ssS'lMax'
p36
F-36.787345334016621
sS'funcBestFit'
p37
(dp38
S'photExp_0b_le3j_0'
p39
F4000.0457350630368
sS'photExp_0b_le3j_1'
p40
F1205.9342713182302
sS'photExp_0b_le3j_2'
p41
F407.99697623885442
sS'photExp_0b_le3j_3'
p42
F126.97638445187633
sS'photExp_0b_le3j_4'
p43
F50.014396316731428
sS'photExp_0b_le3j_5'
p44
F21.9917295919781
sS'photExp_0b_le3j_6'
p45
F9.9858257300599647
sS'photExp_0b_le3j_7'
p46
F6.9986295073371823
sS'zInv_0b_le3j_2'
p47
F177.13417370594325
sS'zInv_0b_le3j_3'
p48
F52.770670451290833
sS'zInv_0b_le3j_0'
p49
F1832.8564941764337
sS'zInv_0b_le3j_1'
p50
F522.32435868744597
sS'zInv_0b_le3j_6'
p51
F3.8036624370732195
sS'zInv_0b_le3j_7'
p52
F2.3235754146628489
sS'zInv_0b_le3j_4'
p53
F24.04731218694101
sS'zInv_0b_le3j_5'
p54
F10.39913448680168
sS'muonB_0b_le3j_5'
p55
F159.00777961710713
sS'hadB_0b_le3j_2'
p56
F251.57711274338584
sS'muonB_0b_le3j_7'
p57
F54.004280207988337
sS'muonB_0b_le3j_6'
p58
F78.003397215256399
sS'muonB_0b_le3j_1'
p59
F3544.8792413291039
sS'muonB_0b_le3j_0'
p60
F9078.095630122998
sS'muonB_0b_le3j_3'
p61
F686.02503167324039
sS'ttw_0b_le3j_0'
p62
F1000.4934948099975
sS'hadB_0b_le3j_0'
p63
F2833.3499889864311
sS'qcd_0b_le3j_2'
p64
F0
sS'qcd_0b_le3j_3'
p65
F0
sS'qcd_0b_le3j_1'
p66
F0
sS'qcd_0b_le3j_6'
p67
F0
sS'qcd_0b_le3j_7'
p68
F0
sS'qcd_0b_le3j_4'
p69
F0
sS'qcd_0b_le3j_5'
p70
F0
sS'hadB_0b_le3j_6'
p71
F5.2606843946331825
sS'hadB_0b_le3j_7'
p72
F2.8751397412977275
sS'ttw_0b_le3j_7'
p73
F0.55156432663487875
sS'muonB_0b_le3j_4'
p74
F325.99141579748556
sS'ttw_0b_le3j_6'
p75
F1.4570219575599632
sS'muonB_0b_le3j_2'
p76
F1538.0149606171265
sS'ttw_0b_le3j_1'
p77
F256.95717216831434
sS'hadB_0b_le3j_3'
p78
F75.914597026878511
sS'ttw_0b_le3j_3'
p79
F23.143926575587674
sS'hadB_0b_le3j_1'
p80
F779.28153085576037
sS'ttw_0b_le3j_5'
p81
F2.8771604216252573
sS'ttw_0b_le3j_4'
p82
F10.685094572211428
sS'hadB_0b_le3j_4'
p83
F34.73240675915244
sS'hadB_0b_le3j_5'
p84
F13.276294908426937
sS'ttw_0b_le3j_2'
p85
F74.442939037442585
ssS'chi2Prob'
p86
F0
sS'parBestFit'
p87
(dp88
g4
F0.99995527060013512
sg5
F1.0001797617363721
sg6
F0.99870985089492126
sg7
F1.0004819694869456
sg8
F0.9997420186813375
sg9
F1.000205248953792
sg10
F0.99999182712019052
sg11
F1.0000239400915265
sg12
F0.67026400345182136
sg13
F0.64688672465490149
sg14
F0.69513206310779363
sg15
F0.70409494637385395
sg16
F0.78328589102076807
sg17
F0.69235951178661792
sg18
F0.80816086303133083
sg19
F0.72303566451422552
sg20
F13.276294908426937
sg21
F34.73240675915244
sg22
F2.8751397412977275
sg23
F5.2606843946331825
sg24
F779.28153085576037
sg25
F2833.3499889864311
sg26
F75.914597026878511
sg27
F251.57711274338584
sg28
F1.0001658417095132
sg29
F1.0000058490394443
sg30
F1.0001457628325583
sg31
F0.99980947045520385
sg32
F1.0000288175925178
sg33
F1.0004592488566497
sg34
F1.0004294053709077
sg35
F0.99950957503057858
ss.