(dp1
S'parError'
p2
(dp3
S'rhoMuonW_1b_le3j_7'
p4
F0.15690031188492859
sS'rhoMuonW_1b_le3j_6'
p5
F0.15641629920870853
sS'rhoMuonW_1b_le3j_5'
p6
F0.15633148932610225
sS'rhoMuonW_1b_le3j_4'
p7
F0.11312479198312264
sS'rhoMuonW_1b_le3j_3'
p8
F0.11109715476898857
sS'rhoMuonW_1b_le3j_2'
p9
F0.066855754541850276
sS'rhoMuonW_1b_le3j_1'
p10
F0.056435637345693734
sS'rhoMuonW_1b_le3j_0'
p11
F0.050811714848666478
sS'fZinv_1b_le3j_4'
p12
F0.10637458684744733
sS'fZinv_1b_le3j_5'
p13
F0.078570449362473815
sS'fZinv_1b_le3j_6'
p14
F0.12137706157542211
sS'fZinv_1b_le3j_7'
p15
F0.82853623727075876
sS'fZinv_1b_le3j_0'
p16
F0.024616554219076103
sS'fZinv_1b_le3j_1'
p17
F0.029436487004781076
sS'fZinv_1b_le3j_2'
p18
F0.042073201796457016
sS'fZinv_1b_le3j_3'
p19
F0.067334026450878381
sS'ewk_1b_le3j_0'
p20
F14.537020135598311
sS'ewk_1b_le3j_1'
p21
F5.9906131168114172
sS'ewk_1b_le3j_2'
p22
F2.9906758798156972
sS'ewk_1b_le3j_3'
p23
F1.5660892259582395
sS'ewk_1b_le3j_4'
p24
F0.82462959039141204
sS'ewk_1b_le3j_5'
p25
F0.60025700025743589
sS'ewk_1b_le3j_6'
p26
F0.31208713058584137
sS'ewk_1b_le3j_7'
p27
F0.046794050608314486
sS'rhoPhotZ_1b_le3j_6'
p28
F0.15462990826291501
sS'rhoPhotZ_1b_le3j_7'
p29
F0.15672846820896758
sS'rhoPhotZ_1b_le3j_4'
p30
F0.11299992926154123
sS'rhoPhotZ_1b_le3j_5'
p31
F0.15391258144119518
sS'rhoPhotZ_1b_le3j_2'
p32
F0.066215983021237323
sS'rhoPhotZ_1b_le3j_3'
p33
F0.10713659634344064
sS'rhoPhotZ_1b_le3j_0'
p34
F0.052341439804501622
sS'rhoPhotZ_1b_le3j_1'
p35
F0.055548229812995398
ssS'lMax'
p36
F-40.026015046555983
sS'funcBestFit'
p37
(dp38
S'ttw_1b_le3j_4'
p39
F1.6359642017209151
sS'ttw_1b_le3j_5'
p40
F0.30151125230771508
sS'hadB_1b_le3j_5'
p41
F1.6306712137495349
sS'hadB_1b_le3j_4'
p42
F3.6577650336838232
sS'ttw_1b_le3j_0'
p43
F226.75481985268658
sS'ttw_1b_le3j_1'
p44
F51.519467837258262
sS'ttw_1b_le3j_2'
p45
F15.301428957338281
sS'hadB_1b_le3j_0'
p46
F425.76936736328764
sS'ttw_1b_le3j_6'
p47
F0.086890908703277939
sS'muonB_1b_le3j_0'
p48
F2281.7666797208822
sS'muonB_1b_le3j_1'
p49
F788.77996134039972
sS'muonB_1b_le3j_2'
p50
F325.2209237618884
sS'ttw_1b_le3j_7'
p51
F0.12132864098120917
sS'muonB_1b_le3j_4'
p52
F62.719613623021019
sS'muonB_1b_le3j_5'
p53
F25.059658765273454
sS'muonB_1b_le3j_6'
p54
F16.074427898446984
sS'muonB_1b_le3j_7'
p55
F7.8842573502274842
sS'hadB_1b_le3j_3'
p56
F10.083988473292251
sS'hadB_1b_le3j_2'
p57
F35.501031641681593
sS'hadB_1b_le3j_1'
p58
F113.92728952545907
sS'hadB_1b_le3j_6'
p59
F0.48775851243523904
sS'ttw_1b_le3j_3'
p60
F3.6546995128486044
sS'qcd_1b_le3j_7'
p61
F0
sS'qcd_1b_le3j_6'
p62
F0
sS'qcd_1b_le3j_5'
p63
F0
sS'qcd_1b_le3j_4'
p64
F0
sS'qcd_1b_le3j_3'
p65
F0
sS'qcd_1b_le3j_2'
p66
F0
sS'qcd_1b_le3j_1'
p67
F0
sS'photExp_1b_le3j_5'
p68
F4.31225537617052
sS'photExp_1b_le3j_4'
p69
F5.6436568082046819
sS'photExp_1b_le3j_7'
p70
F1.7398899248591785e-06
sS'photExp_1b_le3j_6'
p71
F1.4267139972831795
sS'photExp_1b_le3j_1'
p72
F146.23527370568442
sS'photExp_1b_le3j_0'
p73
F452.49073946340815
sS'photExp_1b_le3j_3'
p74
F18.124632553691022
sS'photExp_1b_le3j_2'
p75
F49.28130406462558
sS'zInv_1b_le3j_7'
p76
F4.7314638766958642e-07
sS'zInv_1b_le3j_6'
p77
F0.40086760373196112
sS'zInv_1b_le3j_5'
p78
F1.3291599614418199
sS'zInv_1b_le3j_4'
p79
F2.0218008319629082
sS'zInv_1b_le3j_3'
p80
F6.4292889604436469
sS'zInv_1b_le3j_2'
p81
F20.199602684343311
sS'zInv_1b_le3j_1'
p82
F62.407821688200812
sS'zInv_1b_le3j_0'
p83
F199.01454751060106
sS'hadB_1b_le3j_7'
p84
F0.12132911412759684
sS'muonB_1b_le3j_3'
p85
F138.74582147134669
ssS'chi2Prob'
p86
F0.66094056301984283
sS'parBestFit'
p87
(dp88
g4
F1.0027801596799004
sg5
F0.9977091205482983
sg6
F0.99785467871409284
sg7
F1.0041049838724574
sg8
F0.97818007328262624
sg9
F0.99933380785054693
sg10
F0.99390651893022208
sg11
F0.96787446276204869
sg12
F0.55274212896247843
sg13
F0.81509991114982294
sg14
F0.82185670472575367
sg15
F3.8996937468116499e-06
sg16
F0.46742335819756597
sg17
F0.547786416653533
sg18
F0.56898635758593152
sg19
F0.63757400927934549
sg20
F425.76936736328764
sg21
F113.92728952545907
sg22
F35.501031641681593
sg23
F10.083988473292251
sg24
F3.6577650336838232
sg25
F1.6306712137495349
sg26
F0.48775851243523904
sg27
F0.12132911412759684
sg28
F0.98954587304172348
sg29
F1.000219111663561
sg30
F1.0046718187815746
sg31
F0.99224300722930359
sg32
F0.99868326383214767
sg33
F0.96064871340094549
sg34
F0.97156141797130369
sg35
F0.99254271271915062
ss.