(dp1
S'parError'
p2
(dp3
S'rhoMuonW_2b_ge4j_4'
p4
F0.13067832573384963
sS'rhoMuonW_2b_ge4j_5'
p5
F0.12756430868593016
sS'rhoMuonW_2b_ge4j_6'
p6
F0.1315238010832227
sS'rhoMuonW_2b_ge4j_7'
p7
F0.18485566284709098
sS'rhoMuonW_2b_ge4j_0'
p8
F0.051633638378458357
sS'rhoMuonW_2b_ge4j_1'
p9
F0.053339096410495446
sS'rhoMuonW_2b_ge4j_2'
p10
F0.068465244118597224
sS'rhoMuonW_2b_ge4j_3'
p11
F0.11471154915874138
sS'ewk_2b_ge4j_3'
p12
F1.1150448347173296
sS'ewk_2b_ge4j_2'
p13
F1.8123163021439872
sS'ewk_2b_ge4j_1'
p14
F2.9867936157918749
sS'ewk_2b_ge4j_0'
p15
F4.3522647100572769
sS'ewk_2b_ge4j_7'
p16
F0.1491193456210152
sS'ewk_2b_ge4j_6'
p17
F0.14097661765050007
sS'ewk_2b_ge4j_5'
p18
F0.23303460817501009
sS'ewk_2b_ge4j_4'
p19
F0.33825158205461003
ssS'lMax'
p20
F-34.706600705616061
sS'funcBestFit'
p21
(dp22
S'qcd_2b_ge4j_4'
p23
F0
sS'qcd_2b_ge4j_5'
p24
F0
sS'qcd_2b_ge4j_6'
p25
F0
sS'qcd_2b_ge4j_7'
p26
F0
sS'qcd_2b_ge4j_1'
p27
F0
sS'qcd_2b_ge4j_2'
p28
F0
sS'qcd_2b_ge4j_3'
p29
F0
sS'hadB_2b_ge4j_4'
p30
F1.8525804409399482
sS'hadB_2b_ge4j_5'
p31
F0.92836034295857961
sS'hadB_2b_ge4j_6'
p32
F0.43200511484872195
sS'hadB_2b_ge4j_7'
p33
F0.40932202349842295
sS'hadB_2b_ge4j_0'
p34
F73.649550989415303
sS'hadB_2b_ge4j_1'
p35
F45.679835830281789
sS'hadB_2b_ge4j_2'
p36
F20.374124550885007
sS'hadB_2b_ge4j_3'
p37
F7.7070296790829946
sS'muonB_2b_ge4j_3'
p38
F128.29556974098165
sS'muonB_2b_ge4j_2'
p39
F284.61213079231408
sS'muonB_2b_ge4j_1'
p40
F521.32863355761185
sS'muonB_2b_ge4j_0'
p41
F765.31169320509036
sS'muonB_2b_ge4j_7'
p42
F9.5886330586976047
sS'muonB_2b_ge4j_6'
p43
F10.565339642283796
sS'muonB_2b_ge4j_5'
p44
F20.068164854721765
sS'muonB_2b_ge4j_4'
p45
F54.140653530904551
ssS'chi2Prob'
p46
F0.080660925112669535
sS'parBestFit'
p47
(dp48
g4
F1.014224802954597
sg5
F0.98216970923151925
sg6
F1.0084448418772038
sg7
F0.97930419392297829
sg8
F0.98219793057683724
sg9
F0.97871250160800427
sg10
F0.93882261670702349
sg11
F0.92936583629419689
sg12
F7.7070296790829946
sg13
F20.374124550885007
sg14
F45.679835830281789
sg15
F73.649550989415303
sg16
F0.40932202349842295
sg17
F0.43200511484872195
sg18
F0.92836034295857961
sg19
F1.8525804409399482
ss.