(dp1
S'parError'
p2
(dp3
S'rhoMuonW_0b_le3j_2'
p4
F0.065791909169427232
sS'rhoMuonW_0b_le3j_3'
p5
F0.11027474966233336
sS'rhoMuonW_0b_le3j_0'
p6
F0.052998258518504204
sS'rhoMuonW_0b_le3j_1'
p7
F0.055321272501501428
sS'rhoMuonW_0b_le3j_6'
p8
F0.15494418545135086
sS'rhoMuonW_0b_le3j_7'
p9
F0.15622524076966937
sS'rhoMuonW_0b_le3j_4'
p10
F0.11219106014572849
sS'rhoMuonW_0b_le3j_5'
p11
F0.15729801795591514
sS'fZinv_0b_le3j_1'
p12
F0.018707002002174677
sS'fZinv_0b_le3j_0'
p13
F0.018463903537189075
sS'fZinv_0b_le3j_3'
p14
F0.037166316470341465
sS'fZinv_0b_le3j_2'
p15
F0.021592133530515034
sS'fZinv_0b_le3j_5'
p16
F0.052422738313921247
sS'fZinv_0b_le3j_4'
p17
F0.043967009395137424
sS'fZinv_0b_le3j_7'
p18
F0.059055543909738828
sS'fZinv_0b_le3j_6'
p19
F0.064312460884782485
sS'ewk_0b_le3j_5'
p20
F2.0015838568802025
sS'ewk_0b_le3j_4'
p21
F3.5120868166770887
sS'ewk_0b_le3j_7'
p22
F0.89462106277644726
sS'ewk_0b_le3j_6'
p23
F1.375866049718927
sS'ewk_0b_le3j_1'
p24
F22.183271632879496
sS'ewk_0b_le3j_0'
p25
F48.084035696066167
sS'ewk_0b_le3j_3'
p26
F5.9622042644111204
sS'ewk_0b_le3j_2'
p27
F11.290987824958037
sS'rhoPhotZ_0b_le3j_3'
p28
F0.097283637912658427
sS'rhoPhotZ_0b_le3j_2'
p29
F0.056575859022851782
sS'rhoPhotZ_0b_le3j_1'
p30
F0.04468713107046135
sS'rhoPhotZ_0b_le3j_0'
p31
F0.037604980479625683
sS'rhoPhotZ_0b_le3j_7'
p32
F0.15108591419125755
sS'rhoPhotZ_0b_le3j_6'
p33
F0.14464317974483315
sS'rhoPhotZ_0b_le3j_5'
p34
F0.15508388115168925
sS'rhoPhotZ_0b_le3j_4'
p35
F0.10711118077516618
ssS'lMax'
p36
F-62.880991236617838
sS'funcBestFit'
p37
(dp38
S'photExp_0b_le3j_0'
p39
F3989.6166990533347
sS'photExp_0b_le3j_1'
p40
F1202.7825720723015
sS'photExp_0b_le3j_2'
p41
F409.88662252477138
sS'photExp_0b_le3j_3'
p42
F127.40718614475163
sS'photExp_0b_le3j_4'
p43
F48.839170597284699
sS'photExp_0b_le3j_5'
p44
F19.91869815429169
sS'photExp_0b_le3j_6'
p45
F12.050421829280895
sS'photExp_0b_le3j_7'
p46
F7.6949813969473375
sS'zInv_0b_le3j_2'
p47
F179.49950942163844
sS'zInv_0b_le3j_3'
p48
F53.241337942200325
sS'zInv_0b_le3j_0'
p49
F1764.9031503948002
sS'zInv_0b_le3j_1'
p50
F515.3467741459848
sS'zInv_0b_le3j_6'
p51
F4.8305925710771112
sS'zInv_0b_le3j_7'
p52
F2.5992536945267051
sS'zInv_0b_le3j_4'
p53
F23.122582114534126
sS'zInv_0b_le3j_5'
p54
F8.9531542012606504
sS'muonB_0b_le3j_5'
p55
F158.32952225664098
sS'hadB_0b_le3j_2'
p56
F254.25020745737567
sS'muonB_0b_le3j_7'
p57
F54.149379602702481
sS'muonB_0b_le3j_6'
p58
F78.628950639988361
sS'muonB_0b_le3j_1'
p59
F3543.3629358174926
sS'muonB_0b_le3j_0'
p60
F9072.2404927935477
sS'muonB_0b_le3j_3'
p61
F686.19370523802115
sS'ttw_0b_le3j_0'
p62
F979.48777475656675
sS'hadB_0b_le3j_0'
p63
F2744.3909251513669
sS'qcd_0b_le3j_2'
p64
F0
sS'qcd_0b_le3j_3'
p65
F0
sS'qcd_0b_le3j_1'
p66
F0
sS'qcd_0b_le3j_6'
p67
F0
sS'qcd_0b_le3j_7'
p68
F0
sS'qcd_0b_le3j_4'
p69
F0
sS'qcd_0b_le3j_5'
p70
F0
sS'hadB_0b_le3j_6'
p71
F6.3217610132104021
sS'hadB_0b_le3j_7'
p72
F3.1544658777539425
sS'ttw_0b_le3j_7'
p73
F0.55521218322723731
sS'muonB_0b_le3j_4'
p74
F325.44237268405607
sS'ttw_0b_le3j_6'
p75
F1.4911684421332911
sS'muonB_0b_le3j_2'
p76
F1538.8139778447412
sS'ttw_0b_le3j_1'
p77
F255.4919998867361
sS'hadB_0b_le3j_3'
p78
F76.454464394459734
sS'ttw_0b_le3j_3'
p79
F23.213126452259409
sS'hadB_0b_le3j_1'
p80
F770.83877403272083
sS'ttw_0b_le3j_5'
p81
F2.8178444242379133
sS'ttw_0b_le3j_4'
p82
F10.586786709912984
sS'hadB_0b_le3j_4'
p83
F33.709368824447111
sS'hadB_0b_le3j_5'
p84
F11.770998625498564
sS'ttw_0b_le3j_2'
p85
F74.75069803573723
ssS'chi2Prob'
p86
F0.88212716652370926
sS'parBestFit'
p87
(dp88
g4
F0.99635566592434188
sg5
F0.99744334119287703
sg6
F1.0194698441421648
sg7
F1.0057890368232592
sg8
F0.98468268342847431
sg9
F0.99630340551389063
sg10
F1.0075778017379775
sg11
F1.0167191203980681
sg12
F0.66855325848477509
sg13
F0.6430946605383695
sg14
F0.69637971260260967
sg15
F0.70599552785706587
sg16
F0.76061126894247999
sg17
F0.68593933736798096
sg18
F0.82399169788371207
sg19
F0.76412135178516882
sg20
F11.770998625498564
sg21
F33.709368824447111
sg22
F3.1544658777539425
sg23
F6.3217610132104021
sg24
F770.83877403272083
sg25
F2744.3909251513669
sg26
F76.454464394459734
sg27
F254.25020745737567
sg28
F0.99468744637960083
sg29
F0.99139889388848967
sg30
F1.0110380639468997
sg31
F1.03559762697284
sg32
F0.98291324782872946
sg33
F0.95064688454184187
sg34
F1.0524685867603791
sg35
F1.0150569727214354
ss.