(dp1
S'parError'
p2
(dp3
S'rhoPhotZ_0b_ge4j_4'
p4
F0.13087670323979261
sS'ewk_0b_ge4j_1'
p5
F15.597896620565024
sS'ewk_0b_ge4j_0'
p6
F21.518529919867206
sS'ewk_0b_ge4j_3'
p7
F7.9212739554820253
sS'ewk_0b_ge4j_2'
p8
F10.48440380313815
sS'ewk_0b_ge4j_5'
p9
F2.5346716712466026
sS'ewk_0b_ge4j_4'
p10
F4.2658146438315256
sS'ewk_0b_ge4j_7'
p11
F1.3021643143919035
sS'rhoPhotZ_0b_ge4j_2'
p12
F0.076923710631898512
sS'fZinv_0b_ge4j_3'
p13
F0.051625706843979824
sS'fZinv_0b_ge4j_2'
p14
F0.034043086352610719
sS'fZinv_0b_ge4j_5'
p15
F0.061903817256337201
sS'fZinv_0b_ge4j_4'
p16
F0.056017482823634057
sS'rhoPhotZ_0b_ge4j_5'
p17
F0.1308534993622153
sS'fZinv_0b_ge4j_6'
p18
F0.079677941819483455
sS'rhoPhotZ_0b_ge4j_3'
p19
F0.13093608245506394
sS'fZinv_0b_ge4j_0'
p20
F0.024883272505270282
sS'rhoPhotZ_0b_ge4j_1'
p21
F0.058258541313113199
sS'rhoPhotZ_0b_ge4j_0'
p22
F0.058241484615365824
sS'rhoMuonW_0b_ge4j_6'
p23
F0.13075235940506463
sS'rhoMuonW_0b_ge4j_7'
p24
F0.19001953393783905
sS'rhoMuonW_0b_ge4j_4'
p25
F0.13088687647235497
sS'rhoMuonW_0b_ge4j_5'
p26
F0.13088832460064398
sS'rhoMuonW_0b_ge4j_2'
p27
F0.076925533891652464
sS'rhoMuonW_0b_ge4j_3'
p28
F0.13071988383419297
sS'rhoMuonW_0b_ge4j_0'
p29
F0.058255412082719338
sS'rhoMuonW_0b_ge4j_1'
p30
F0.058243525330297585
sS'ewk_0b_ge4j_6'
p31
F1.9233052172029002
sS'fZinv_0b_ge4j_1'
p32
F0.024896868864466126
sS'rhoPhotZ_0b_ge4j_7'
p33
F0.18999738461028032
sS'rhoPhotZ_0b_ge4j_6'
p34
F0.1308184018065619
sS'fZinv_0b_ge4j_7'
p35
F0.11296672759594001
ssS'lMax'
p36
F-30.494630818289824
sS'funcBestFit'
p37
(dp38
S'ttw_0b_ge4j_5'
p39
F3.775691055270082
sS'ttw_0b_ge4j_4'
p40
F7.9367368187983631
sS'hadB_0b_ge4j_4'
p41
F26.53254097550532
sS'hadB_0b_ge4j_5'
p42
F13.410293954385914
sS'hadB_0b_ge4j_2'
p43
F139.27574257373803
sS'hadB_0b_ge4j_3'
p44
F65.886826108464049
sS'hadB_0b_ge4j_0'
p45
F429.55932693996124
sS'hadB_0b_ge4j_1'
p46
F284.63944266340553
sS'photExp_0b_ge4j_4'
p47
F31.990762429903558
sS'photExp_0b_ge4j_5'
p48
F21.00550421380299
sS'photExp_0b_ge4j_6'
p49
F8.0084644090315376
sS'photExp_0b_ge4j_7'
p50
F5.0056860561531167
sS'photExp_0b_ge4j_0'
p51
F427.02111061856777
sS'photExp_0b_ge4j_1'
p52
F343.98659764697391
sS'photExp_0b_ge4j_2'
p53
F155.00213179017129
sS'photExp_0b_ge4j_3'
p54
F82.982528267469519
sS'ttw_0b_ge4j_3'
p55
F24.160505414851972
sS'muonB_0b_ge4j_1'
p56
F887.96904325713069
sS'muonB_0b_ge4j_0'
p57
F1249.0204846306331
sS'muonB_0b_ge4j_3'
p58
F307.98706658540812
sS'muonB_0b_ge4j_2'
p59
F561.99902847920191
sS'muonB_0b_ge4j_5'
p60
F80.98664163241402
sS'muonB_0b_ge4j_4'
p61
F161.99542757948296
sS'muonB_0b_ge4j_7'
p62
F29.00065096084462
sS'muonB_0b_ge4j_6'
p63
F47.006904651793242
sS'hadB_0b_ge4j_6'
p64
F6.728238463351377
sS'hadB_0b_ge4j_7'
p65
F3.7007329774852717
sS'ttw_0b_ge4j_7'
p66
F1.0742282207008735
sS'ttw_0b_ge4j_6'
p67
F1.6958752316552437
sS'ttw_0b_ge4j_1'
p68
F113.05557975791648
sS'ttw_0b_ge4j_0'
p69
F208.14466776165992
sS'qcd_0b_ge4j_6'
p70
F0
sS'qcd_0b_ge4j_7'
p71
F0
sS'qcd_0b_ge4j_4'
p72
F0
sS'qcd_0b_ge4j_5'
p73
F0
sS'qcd_0b_ge4j_2'
p74
F0
sS'qcd_0b_ge4j_3'
p75
F0
sS'qcd_0b_ge4j_1'
p76
F0
sS'ttw_0b_ge4j_2'
p77
F56.027917866683715
sS'zInv_0b_ge4j_6'
p78
F5.0323632316961335
sS'zInv_0b_ge4j_7'
p79
F2.626504756784398
sS'zInv_0b_ge4j_4'
p80
F18.595804156706958
sS'zInv_0b_ge4j_5'
p81
F9.6346028991158317
sS'zInv_0b_ge4j_2'
p82
F83.24782470705432
sS'zInv_0b_ge4j_3'
p83
F41.726320693612081
sS'zInv_0b_ge4j_0'
p84
F221.41465917830132
sS'zInv_0b_ge4j_1'
p85
F171.58386290548904
ssS'chi2Prob'
p86
F0
sS'parBestFit'
p87
(dp88
g4
F1.0002750081818097
sg5
F284.63944266340553
sg6
F429.55932693996124
sg7
F65.886826108464049
sg8
F139.27574257373803
sg9
F13.410293954385914
sg10
F26.53254097550532
sg11
F3.7007329774852717
sg12
F0.9999926089645077
sg13
F0.63330294017989996
sg14
F0.59771948200512848
sg15
F0.71844830037933505
sg16
F0.70086782015618065
sg17
F1.0000762266229495
sg18
F0.74794662215189711
sg19
F1.000681326343237
sg20
F0.51544605201704319
sg21
F1.0001105269730621
sg22
F0.99981350310541295
sg23
F0.99944789424683
sg24
F0.99987894847353509
sg25
F1.0002934056556803
sg26
F1.0003508208288641
sg27
F1.000014561541978
sg28
F0.99942453768291339
sg29
F0.99998542972897209
sg30
F0.99993346111862436
sg31
F6.728238463351377
sg32
F0.60281126642168137
sg33
F0.99972035739257836
sg34
F0.99977840710227017
sg35
F0.70972555241452873
ss.